ARM GAS  C:\Users\urdjt\AppData\Local\Temp\ccFfW7O9.s 			page 1


   1              		.syntax unified
   2              		.cpu cortex-m3
   3              		.fpu softvfp
   4              		.eabi_attribute 20, 1
   5              		.eabi_attribute 21, 1
   6              		.eabi_attribute 23, 3
   7              		.eabi_attribute 24, 1
   8              		.eabi_attribute 25, 1
   9              		.eabi_attribute 26, 1
  10              		.eabi_attribute 30, 1
  11              		.eabi_attribute 34, 1
  12              		.eabi_attribute 18, 4
  13              		.thumb
  14              		.syntax unified
  15              		.file	"cyfitter_cfg.c"
  16              		.text
  17              	.Ltext0:
  18              		.cfi_sections	.debug_frame
  19              		.section	.text.CyClockStartupError,"ax",%progbits
  20              		.align	2
  21              		.thumb
  22              		.thumb_func
  23              		.type	CyClockStartupError, %function
  24              	CyClockStartupError:
  25              	.LFB3:
  26              		.file 1 "Generated_Source\\PSoC5\\cyfitter_cfg.c"
   1:Generated_Source\PSoC5/cyfitter_cfg.c **** 
   2:Generated_Source\PSoC5/cyfitter_cfg.c **** /*******************************************************************************
   3:Generated_Source\PSoC5/cyfitter_cfg.c **** * File Name: cyfitter_cfg.c
   4:Generated_Source\PSoC5/cyfitter_cfg.c **** * 
   5:Generated_Source\PSoC5/cyfitter_cfg.c **** * PSoC Creator  4.2
   6:Generated_Source\PSoC5/cyfitter_cfg.c **** *
   7:Generated_Source\PSoC5/cyfitter_cfg.c **** * Description:
   8:Generated_Source\PSoC5/cyfitter_cfg.c **** * This file contains device initialization code.
   9:Generated_Source\PSoC5/cyfitter_cfg.c **** * Except for the user defined sections in CyClockStartupError(), this file should not be modified.
  10:Generated_Source\PSoC5/cyfitter_cfg.c **** * This file is automatically generated by PSoC Creator.
  11:Generated_Source\PSoC5/cyfitter_cfg.c **** *
  12:Generated_Source\PSoC5/cyfitter_cfg.c **** ********************************************************************************
  13:Generated_Source\PSoC5/cyfitter_cfg.c **** * Copyright (c) 2007-2018 Cypress Semiconductor.  All rights reserved.
  14:Generated_Source\PSoC5/cyfitter_cfg.c **** * You may use this file only in accordance with the license, terms, conditions, 
  15:Generated_Source\PSoC5/cyfitter_cfg.c **** * disclaimers, and limitations in the end user license agreement accompanying 
  16:Generated_Source\PSoC5/cyfitter_cfg.c **** * the software package with which this file was provided.
  17:Generated_Source\PSoC5/cyfitter_cfg.c **** ********************************************************************************/
  18:Generated_Source\PSoC5/cyfitter_cfg.c **** 
  19:Generated_Source\PSoC5/cyfitter_cfg.c **** #include <string.h>
  20:Generated_Source\PSoC5/cyfitter_cfg.c **** #include "cytypes.h"
  21:Generated_Source\PSoC5/cyfitter_cfg.c **** #include "cydevice_trm.h"
  22:Generated_Source\PSoC5/cyfitter_cfg.c **** #include "cyfitter.h"
  23:Generated_Source\PSoC5/cyfitter_cfg.c **** #include "CyLib.h"
  24:Generated_Source\PSoC5/cyfitter_cfg.c **** #include "cyfitter_cfg.h"
  25:Generated_Source\PSoC5/cyfitter_cfg.c **** #include "cyapicallbacks.h"
  26:Generated_Source\PSoC5/cyfitter_cfg.c **** 
  27:Generated_Source\PSoC5/cyfitter_cfg.c **** #define CY_NEED_CYCLOCKSTARTUPERROR 1
  28:Generated_Source\PSoC5/cyfitter_cfg.c **** 
  29:Generated_Source\PSoC5/cyfitter_cfg.c **** 
  30:Generated_Source\PSoC5/cyfitter_cfg.c **** #if defined(__GNUC__) || defined(__ARMCC_VERSION)
  31:Generated_Source\PSoC5/cyfitter_cfg.c ****     #define CYPACKED 
ARM GAS  C:\Users\urdjt\AppData\Local\Temp\ccFfW7O9.s 			page 2


  32:Generated_Source\PSoC5/cyfitter_cfg.c ****     #define CYPACKED_ATTR __attribute__ ((packed))
  33:Generated_Source\PSoC5/cyfitter_cfg.c ****     #define CYALIGNED __attribute__ ((aligned))
  34:Generated_Source\PSoC5/cyfitter_cfg.c ****     #define CY_CFG_UNUSED __attribute__ ((unused))
  35:Generated_Source\PSoC5/cyfitter_cfg.c ****     #ifndef CY_CFG_SECTION
  36:Generated_Source\PSoC5/cyfitter_cfg.c ****         #define CY_CFG_SECTION __attribute__ ((section(".psocinit")))
  37:Generated_Source\PSoC5/cyfitter_cfg.c ****     #endif
  38:Generated_Source\PSoC5/cyfitter_cfg.c ****     
  39:Generated_Source\PSoC5/cyfitter_cfg.c ****     #if defined(__ARMCC_VERSION)
  40:Generated_Source\PSoC5/cyfitter_cfg.c ****         #define CY_CFG_MEMORY_BARRIER() __memory_changed()
  41:Generated_Source\PSoC5/cyfitter_cfg.c ****     #else
  42:Generated_Source\PSoC5/cyfitter_cfg.c ****         #define CY_CFG_MEMORY_BARRIER() __sync_synchronize()
  43:Generated_Source\PSoC5/cyfitter_cfg.c ****     #endif
  44:Generated_Source\PSoC5/cyfitter_cfg.c ****     
  45:Generated_Source\PSoC5/cyfitter_cfg.c **** #elif defined(__ICCARM__)
  46:Generated_Source\PSoC5/cyfitter_cfg.c ****     #include <intrinsics.h>
  47:Generated_Source\PSoC5/cyfitter_cfg.c **** 
  48:Generated_Source\PSoC5/cyfitter_cfg.c ****     #define CYPACKED __packed
  49:Generated_Source\PSoC5/cyfitter_cfg.c ****     #define CYPACKED_ATTR 
  50:Generated_Source\PSoC5/cyfitter_cfg.c ****     #define CYALIGNED _Pragma("data_alignment=4")
  51:Generated_Source\PSoC5/cyfitter_cfg.c ****     #define CY_CFG_UNUSED _Pragma("diag_suppress=Pe177")
  52:Generated_Source\PSoC5/cyfitter_cfg.c ****     #define CY_CFG_SECTION _Pragma("location=\".psocinit\"")
  53:Generated_Source\PSoC5/cyfitter_cfg.c ****     
  54:Generated_Source\PSoC5/cyfitter_cfg.c ****     #define CY_CFG_MEMORY_BARRIER() __DMB()
  55:Generated_Source\PSoC5/cyfitter_cfg.c ****     
  56:Generated_Source\PSoC5/cyfitter_cfg.c **** #else
  57:Generated_Source\PSoC5/cyfitter_cfg.c ****     #error Unsupported toolchain
  58:Generated_Source\PSoC5/cyfitter_cfg.c **** #endif
  59:Generated_Source\PSoC5/cyfitter_cfg.c **** 
  60:Generated_Source\PSoC5/cyfitter_cfg.c **** #ifndef CYCODE
  61:Generated_Source\PSoC5/cyfitter_cfg.c ****     #define CYCODE
  62:Generated_Source\PSoC5/cyfitter_cfg.c **** #endif
  63:Generated_Source\PSoC5/cyfitter_cfg.c **** #ifndef CYDATA
  64:Generated_Source\PSoC5/cyfitter_cfg.c ****     #define CYDATA
  65:Generated_Source\PSoC5/cyfitter_cfg.c **** #endif
  66:Generated_Source\PSoC5/cyfitter_cfg.c **** #ifndef CYFAR
  67:Generated_Source\PSoC5/cyfitter_cfg.c ****     #define CYFAR
  68:Generated_Source\PSoC5/cyfitter_cfg.c **** #endif
  69:Generated_Source\PSoC5/cyfitter_cfg.c **** #ifndef CYXDATA
  70:Generated_Source\PSoC5/cyfitter_cfg.c ****     #define CYXDATA
  71:Generated_Source\PSoC5/cyfitter_cfg.c **** #endif
  72:Generated_Source\PSoC5/cyfitter_cfg.c **** 
  73:Generated_Source\PSoC5/cyfitter_cfg.c **** 
  74:Generated_Source\PSoC5/cyfitter_cfg.c **** CY_CFG_UNUSED
  75:Generated_Source\PSoC5/cyfitter_cfg.c **** static void CYMEMZERO(void *s, size_t n);
  76:Generated_Source\PSoC5/cyfitter_cfg.c **** CY_CFG_UNUSED
  77:Generated_Source\PSoC5/cyfitter_cfg.c **** static void CYMEMZERO(void *s, size_t n)
  78:Generated_Source\PSoC5/cyfitter_cfg.c **** {
  79:Generated_Source\PSoC5/cyfitter_cfg.c **** 	(void)memset(s, 0, n);
  80:Generated_Source\PSoC5/cyfitter_cfg.c **** }
  81:Generated_Source\PSoC5/cyfitter_cfg.c **** CY_CFG_UNUSED
  82:Generated_Source\PSoC5/cyfitter_cfg.c **** static void CYCONFIGCPY(void *dest, const void *src, size_t n);
  83:Generated_Source\PSoC5/cyfitter_cfg.c **** CY_CFG_UNUSED
  84:Generated_Source\PSoC5/cyfitter_cfg.c **** static void CYCONFIGCPY(void *dest, const void *src, size_t n)
  85:Generated_Source\PSoC5/cyfitter_cfg.c **** {
  86:Generated_Source\PSoC5/cyfitter_cfg.c **** 	(void)memcpy(dest, src, n);
  87:Generated_Source\PSoC5/cyfitter_cfg.c **** }
  88:Generated_Source\PSoC5/cyfitter_cfg.c **** CY_CFG_UNUSED
ARM GAS  C:\Users\urdjt\AppData\Local\Temp\ccFfW7O9.s 			page 3


  89:Generated_Source\PSoC5/cyfitter_cfg.c **** static void CYCONFIGCPYCODE(void *dest, const void *src, size_t n);
  90:Generated_Source\PSoC5/cyfitter_cfg.c **** CY_CFG_UNUSED
  91:Generated_Source\PSoC5/cyfitter_cfg.c **** static void CYCONFIGCPYCODE(void *dest, const void *src, size_t n)
  92:Generated_Source\PSoC5/cyfitter_cfg.c **** {
  93:Generated_Source\PSoC5/cyfitter_cfg.c **** 	(void)memcpy(dest, src, n);
  94:Generated_Source\PSoC5/cyfitter_cfg.c **** }
  95:Generated_Source\PSoC5/cyfitter_cfg.c **** 
  96:Generated_Source\PSoC5/cyfitter_cfg.c **** 
  97:Generated_Source\PSoC5/cyfitter_cfg.c **** 
  98:Generated_Source\PSoC5/cyfitter_cfg.c **** 
  99:Generated_Source\PSoC5/cyfitter_cfg.c **** /* Clock startup error codes                                                   */
 100:Generated_Source\PSoC5/cyfitter_cfg.c **** #define CYCLOCKSTART_NO_ERROR    0u
 101:Generated_Source\PSoC5/cyfitter_cfg.c **** #define CYCLOCKSTART_XTAL_ERROR  1u
 102:Generated_Source\PSoC5/cyfitter_cfg.c **** #define CYCLOCKSTART_32KHZ_ERROR 2u
 103:Generated_Source\PSoC5/cyfitter_cfg.c **** #define CYCLOCKSTART_PLL_ERROR   3u
 104:Generated_Source\PSoC5/cyfitter_cfg.c **** #define CYCLOCKSTART_FLL_ERROR   4u
 105:Generated_Source\PSoC5/cyfitter_cfg.c **** #define CYCLOCKSTART_WCO_ERROR   5u
 106:Generated_Source\PSoC5/cyfitter_cfg.c **** 
 107:Generated_Source\PSoC5/cyfitter_cfg.c **** 
 108:Generated_Source\PSoC5/cyfitter_cfg.c **** #ifdef CY_NEED_CYCLOCKSTARTUPERROR
 109:Generated_Source\PSoC5/cyfitter_cfg.c **** /*******************************************************************************
 110:Generated_Source\PSoC5/cyfitter_cfg.c **** * Function Name: CyClockStartupError
 111:Generated_Source\PSoC5/cyfitter_cfg.c **** ********************************************************************************
 112:Generated_Source\PSoC5/cyfitter_cfg.c **** * Summary:
 113:Generated_Source\PSoC5/cyfitter_cfg.c **** *  If an error is encountered during clock configuration (crystal startup error,
 114:Generated_Source\PSoC5/cyfitter_cfg.c **** *  PLL lock error, etc.), the system will end up here.  Unless reimplemented by
 115:Generated_Source\PSoC5/cyfitter_cfg.c **** *  the customer, this function will stop in an infinite loop.
 116:Generated_Source\PSoC5/cyfitter_cfg.c **** *
 117:Generated_Source\PSoC5/cyfitter_cfg.c **** * Parameters:
 118:Generated_Source\PSoC5/cyfitter_cfg.c **** *   void
 119:Generated_Source\PSoC5/cyfitter_cfg.c **** *
 120:Generated_Source\PSoC5/cyfitter_cfg.c **** * Return:
 121:Generated_Source\PSoC5/cyfitter_cfg.c **** *   void
 122:Generated_Source\PSoC5/cyfitter_cfg.c **** *
 123:Generated_Source\PSoC5/cyfitter_cfg.c **** *******************************************************************************/
 124:Generated_Source\PSoC5/cyfitter_cfg.c **** CY_CFG_UNUSED
 125:Generated_Source\PSoC5/cyfitter_cfg.c **** static void CyClockStartupError(uint8 errorCode);
 126:Generated_Source\PSoC5/cyfitter_cfg.c **** CY_CFG_UNUSED
 127:Generated_Source\PSoC5/cyfitter_cfg.c **** static void CyClockStartupError(uint8 errorCode)
 128:Generated_Source\PSoC5/cyfitter_cfg.c **** {
  27              		.loc 1 128 0
  28              		.cfi_startproc
  29              		@ Volatile: function does not return.
  30              		@ args = 0, pretend = 0, frame = 0
  31              		@ frame_needed = 0, uses_anonymous_args = 0
  32              		@ link register save eliminated.
  33              	.LVL0:
  34              	.L2:
  35 0000 FEE7     		b	.L2
  36              		.cfi_endproc
  37              	.LFE3:
  38              		.size	CyClockStartupError, .-CyClockStartupError
  39 0002 00BF     		.section	.text.cfg_write_bytes32,"ax",%progbits
  40              		.align	2
  41              		.thumb
  42              		.thumb_func
  43              		.type	cfg_write_bytes32, %function
ARM GAS  C:\Users\urdjt\AppData\Local\Temp\ccFfW7O9.s 			page 4


  44              	cfg_write_bytes32:
  45              	.LFB4:
 129:Generated_Source\PSoC5/cyfitter_cfg.c ****     /* To remove the compiler warning if errorCode not used.                */
 130:Generated_Source\PSoC5/cyfitter_cfg.c ****     errorCode = errorCode;
 131:Generated_Source\PSoC5/cyfitter_cfg.c **** 
 132:Generated_Source\PSoC5/cyfitter_cfg.c ****     /* If we have a clock startup error (bad MHz crystal, PLL lock, etc.),  */
 133:Generated_Source\PSoC5/cyfitter_cfg.c ****     /* we will end up here to allow the customer to implement something to  */
 134:Generated_Source\PSoC5/cyfitter_cfg.c ****     /* deal with the clock condition.                                       */
 135:Generated_Source\PSoC5/cyfitter_cfg.c **** 
 136:Generated_Source\PSoC5/cyfitter_cfg.c **** #ifdef CY_CFG_CLOCK_STARTUP_ERROR_CALLBACK
 137:Generated_Source\PSoC5/cyfitter_cfg.c ****     CY_CFG_Clock_Startup_ErrorCallback();
 138:Generated_Source\PSoC5/cyfitter_cfg.c **** #else
 139:Generated_Source\PSoC5/cyfitter_cfg.c ****     /*  If not using CY_CFG_CLOCK_STARTUP_ERROR_CALLBACK, place your clock startup code here. */
 140:Generated_Source\PSoC5/cyfitter_cfg.c ****     /* `#START CyClockStartupError` */
 141:Generated_Source\PSoC5/cyfitter_cfg.c **** 
 142:Generated_Source\PSoC5/cyfitter_cfg.c **** 
 143:Generated_Source\PSoC5/cyfitter_cfg.c **** 
 144:Generated_Source\PSoC5/cyfitter_cfg.c ****     /* `#END` */
 145:Generated_Source\PSoC5/cyfitter_cfg.c **** 
 146:Generated_Source\PSoC5/cyfitter_cfg.c ****     while(1) {}
 147:Generated_Source\PSoC5/cyfitter_cfg.c **** #endif /* CY_CFG_CLOCK_STARTUP_ERROR_CALLBACK */
 148:Generated_Source\PSoC5/cyfitter_cfg.c **** }
 149:Generated_Source\PSoC5/cyfitter_cfg.c **** #endif
 150:Generated_Source\PSoC5/cyfitter_cfg.c **** 
 151:Generated_Source\PSoC5/cyfitter_cfg.c **** #define CY_CFG_BASE_ADDR_COUNT 25u
 152:Generated_Source\PSoC5/cyfitter_cfg.c **** CYPACKED typedef struct
 153:Generated_Source\PSoC5/cyfitter_cfg.c **** {
 154:Generated_Source\PSoC5/cyfitter_cfg.c **** 	uint8 offset;
 155:Generated_Source\PSoC5/cyfitter_cfg.c **** 	uint8 value;
 156:Generated_Source\PSoC5/cyfitter_cfg.c **** } CYPACKED_ATTR cy_cfg_addrvalue_t;
 157:Generated_Source\PSoC5/cyfitter_cfg.c **** 
 158:Generated_Source\PSoC5/cyfitter_cfg.c **** #define cy_cfg_addr_table ((const uint32 CYFAR *)0x48000000u)
 159:Generated_Source\PSoC5/cyfitter_cfg.c **** #define cy_cfg_data_table ((const cy_cfg_addrvalue_t CYFAR *)0x48000064u)
 160:Generated_Source\PSoC5/cyfitter_cfg.c **** 
 161:Generated_Source\PSoC5/cyfitter_cfg.c **** /* IOPINS0_0 Address: CYREG_PRT0_DM0 Size (bytes): 8 */
 162:Generated_Source\PSoC5/cyfitter_cfg.c **** #define BS_IOPINS0_0_VAL ((const uint8 CYFAR *)0x480003C0u)
 163:Generated_Source\PSoC5/cyfitter_cfg.c **** 
 164:Generated_Source\PSoC5/cyfitter_cfg.c **** /* IOPINS0_1 Address: CYREG_PRT1_DR Size (bytes): 10 */
 165:Generated_Source\PSoC5/cyfitter_cfg.c **** #define BS_IOPINS0_1_VAL ((const uint8 CYFAR *)0x480003C8u)
 166:Generated_Source\PSoC5/cyfitter_cfg.c **** 
 167:Generated_Source\PSoC5/cyfitter_cfg.c **** /* IOPINS0_2 Address: CYREG_PRT2_DM0 Size (bytes): 8 */
 168:Generated_Source\PSoC5/cyfitter_cfg.c **** #define BS_IOPINS0_2_VAL ((const uint8 CYFAR *)0x480003D4u)
 169:Generated_Source\PSoC5/cyfitter_cfg.c **** 
 170:Generated_Source\PSoC5/cyfitter_cfg.c **** /* IOPINS0_3 Address: CYREG_PRT3_DM0 Size (bytes): 8 */
 171:Generated_Source\PSoC5/cyfitter_cfg.c **** #define BS_IOPINS0_3_VAL ((const uint8 CYFAR *)0x480003DCu)
 172:Generated_Source\PSoC5/cyfitter_cfg.c **** 
 173:Generated_Source\PSoC5/cyfitter_cfg.c **** /* IOPINS0_4 Address: CYREG_PRT4_DM0 Size (bytes): 8 */
 174:Generated_Source\PSoC5/cyfitter_cfg.c **** #define BS_IOPINS0_4_VAL ((const uint8 CYFAR *)0x480003E4u)
 175:Generated_Source\PSoC5/cyfitter_cfg.c **** 
 176:Generated_Source\PSoC5/cyfitter_cfg.c **** 
 177:Generated_Source\PSoC5/cyfitter_cfg.c **** /*******************************************************************************
 178:Generated_Source\PSoC5/cyfitter_cfg.c **** * Function Name: cfg_write_bytes32
 179:Generated_Source\PSoC5/cyfitter_cfg.c **** ********************************************************************************
 180:Generated_Source\PSoC5/cyfitter_cfg.c **** * Summary:
 181:Generated_Source\PSoC5/cyfitter_cfg.c **** *  This function is used for setting up the chip configuration areas that
 182:Generated_Source\PSoC5/cyfitter_cfg.c **** *  contain relatively sparse data.
 183:Generated_Source\PSoC5/cyfitter_cfg.c **** *
ARM GAS  C:\Users\urdjt\AppData\Local\Temp\ccFfW7O9.s 			page 5


 184:Generated_Source\PSoC5/cyfitter_cfg.c **** * Parameters:
 185:Generated_Source\PSoC5/cyfitter_cfg.c **** *   void
 186:Generated_Source\PSoC5/cyfitter_cfg.c **** *
 187:Generated_Source\PSoC5/cyfitter_cfg.c **** * Return:
 188:Generated_Source\PSoC5/cyfitter_cfg.c **** *   void
 189:Generated_Source\PSoC5/cyfitter_cfg.c **** *
 190:Generated_Source\PSoC5/cyfitter_cfg.c **** *******************************************************************************/
 191:Generated_Source\PSoC5/cyfitter_cfg.c **** static void cfg_write_bytes32(const uint32 addr_table[], const cy_cfg_addrvalue_t data_table[]);
 192:Generated_Source\PSoC5/cyfitter_cfg.c **** static void cfg_write_bytes32(const uint32 addr_table[], const cy_cfg_addrvalue_t data_table[])
 193:Generated_Source\PSoC5/cyfitter_cfg.c **** {
  46              		.loc 1 193 0
  47              		.cfi_startproc
  48              		@ args = 0, pretend = 0, frame = 0
  49              		@ frame_needed = 0, uses_anonymous_args = 0
  50              		@ link register save eliminated.
  51              	.LVL1:
  52              		.loc 1 193 0
  53 0000 F0B4     		push	{r4, r5, r6, r7}
  54              		.cfi_def_cfa_offset 16
  55              		.cfi_offset 4, -16
  56              		.cfi_offset 5, -12
  57              		.cfi_offset 6, -8
  58              		.cfi_offset 7, -4
  59              	.LVL2:
 194:Generated_Source\PSoC5/cyfitter_cfg.c **** 	/* For 32-bit little-endian architectures */
 195:Generated_Source\PSoC5/cyfitter_cfg.c **** 	uint32 i, j = 0u;
  60              		.loc 1 195 0
  61 0002 0022     		movs	r2, #0
 196:Generated_Source\PSoC5/cyfitter_cfg.c **** 	for (i = 0u; i < CY_CFG_BASE_ADDR_COUNT; i++)
  62              		.loc 1 196 0
  63 0004 1746     		mov	r7, r2
  64 0006 11E0     		b	.L4
  65              	.LVL3:
  66              	.L7:
  67              	.LBB2:
 197:Generated_Source\PSoC5/cyfitter_cfg.c **** 	{
 198:Generated_Source\PSoC5/cyfitter_cfg.c **** 		uint32 baseAddr = addr_table[i];
  68              		.loc 1 198 0
  69 0008 50F82760 		ldr	r6, [r0, r7, lsl #2]
  70              	.LVL4:
 199:Generated_Source\PSoC5/cyfitter_cfg.c **** 		uint8 count = (uint8)baseAddr;
  71              		.loc 1 199 0
  72 000c F3B2     		uxtb	r3, r6
  73              	.LVL5:
 200:Generated_Source\PSoC5/cyfitter_cfg.c **** 		baseAddr &= 0xFFFFFF00u;
  74              		.loc 1 200 0
  75 000e 26F0FF06 		bic	r6, r6, #255
  76              	.LVL6:
 201:Generated_Source\PSoC5/cyfitter_cfg.c **** 		while (count != 0u)
  77              		.loc 1 201 0
  78 0012 08E0     		b	.L5
  79              	.L6:
 202:Generated_Source\PSoC5/cyfitter_cfg.c **** 		{
 203:Generated_Source\PSoC5/cyfitter_cfg.c **** 			CY_SET_REG8((void *)(baseAddr + data_table[j].offset), data_table[j].value);
  80              		.loc 1 203 0
  81 0014 01EB4205 		add	r5, r1, r2, lsl #1
  82 0018 11F81240 		ldrb	r4, [r1, r2, lsl #1]	@ zero_extendqisi2
ARM GAS  C:\Users\urdjt\AppData\Local\Temp\ccFfW7O9.s 			page 6


  83 001c 6D78     		ldrb	r5, [r5, #1]	@ zero_extendqisi2
  84 001e A555     		strb	r5, [r4, r6]
 204:Generated_Source\PSoC5/cyfitter_cfg.c **** 			j++;
  85              		.loc 1 204 0
  86 0020 0132     		adds	r2, r2, #1
  87              	.LVL7:
 205:Generated_Source\PSoC5/cyfitter_cfg.c **** 			count--;
  88              		.loc 1 205 0
  89 0022 013B     		subs	r3, r3, #1
  90              	.LVL8:
  91 0024 DBB2     		uxtb	r3, r3
  92              	.LVL9:
  93              	.L5:
 201:Generated_Source\PSoC5/cyfitter_cfg.c **** 		{
  94              		.loc 1 201 0
  95 0026 002B     		cmp	r3, #0
  96 0028 F4D1     		bne	.L6
  97              	.LBE2:
 196:Generated_Source\PSoC5/cyfitter_cfg.c **** 	{
  98              		.loc 1 196 0 discriminator 2
  99 002a 0137     		adds	r7, r7, #1
 100              	.LVL10:
 101              	.L4:
 196:Generated_Source\PSoC5/cyfitter_cfg.c **** 	{
 102              		.loc 1 196 0 is_stmt 0 discriminator 1
 103 002c 182F     		cmp	r7, #24
 104 002e EBD9     		bls	.L7
 206:Generated_Source\PSoC5/cyfitter_cfg.c **** 		}
 207:Generated_Source\PSoC5/cyfitter_cfg.c **** 	}
 208:Generated_Source\PSoC5/cyfitter_cfg.c **** }
 105              		.loc 1 208 0 is_stmt 1
 106 0030 F0BC     		pop	{r4, r5, r6, r7}
 107              		.cfi_restore 7
 108              		.cfi_restore 6
 109              		.cfi_restore 5
 110              		.cfi_restore 4
 111              		.cfi_def_cfa_offset 0
 112              	.LVL11:
 113 0032 7047     		bx	lr
 114              		.cfi_endproc
 115              	.LFE4:
 116              		.size	cfg_write_bytes32, .-cfg_write_bytes32
 117              		.section	.text.AnalogSetDefault,"ax",%progbits
 118              		.align	2
 119              		.thumb
 120              		.thumb_func
 121              		.type	AnalogSetDefault, %function
 122              	AnalogSetDefault:
 123              	.LFB6:
 209:Generated_Source\PSoC5/cyfitter_cfg.c **** 
 210:Generated_Source\PSoC5/cyfitter_cfg.c **** /*******************************************************************************
 211:Generated_Source\PSoC5/cyfitter_cfg.c **** * Function Name: ClockSetup
 212:Generated_Source\PSoC5/cyfitter_cfg.c **** ********************************************************************************
 213:Generated_Source\PSoC5/cyfitter_cfg.c **** *
 214:Generated_Source\PSoC5/cyfitter_cfg.c **** * Summary:
 215:Generated_Source\PSoC5/cyfitter_cfg.c **** *  Performs the initialization of all of the clocks in the device based on the
 216:Generated_Source\PSoC5/cyfitter_cfg.c **** *  settings in the Clock tab of the DWR.  This includes enabling the requested
ARM GAS  C:\Users\urdjt\AppData\Local\Temp\ccFfW7O9.s 			page 7


 217:Generated_Source\PSoC5/cyfitter_cfg.c **** *  clocks and setting the necessary dividers to produce the desired frequency. 
 218:Generated_Source\PSoC5/cyfitter_cfg.c **** *
 219:Generated_Source\PSoC5/cyfitter_cfg.c **** * Parameters:
 220:Generated_Source\PSoC5/cyfitter_cfg.c **** *  void
 221:Generated_Source\PSoC5/cyfitter_cfg.c **** *
 222:Generated_Source\PSoC5/cyfitter_cfg.c **** * Return:
 223:Generated_Source\PSoC5/cyfitter_cfg.c **** *  void
 224:Generated_Source\PSoC5/cyfitter_cfg.c **** *
 225:Generated_Source\PSoC5/cyfitter_cfg.c **** *******************************************************************************/
 226:Generated_Source\PSoC5/cyfitter_cfg.c **** static void ClockSetup(void);
 227:Generated_Source\PSoC5/cyfitter_cfg.c **** static void ClockSetup(void)
 228:Generated_Source\PSoC5/cyfitter_cfg.c **** {
 229:Generated_Source\PSoC5/cyfitter_cfg.c **** 	uint32 timeout;
 230:Generated_Source\PSoC5/cyfitter_cfg.c **** 	uint8 pllLock;
 231:Generated_Source\PSoC5/cyfitter_cfg.c **** 
 232:Generated_Source\PSoC5/cyfitter_cfg.c **** 
 233:Generated_Source\PSoC5/cyfitter_cfg.c **** 	/* Configure Digital Clocks based on settings from Clock DWR */
 234:Generated_Source\PSoC5/cyfitter_cfg.c **** 	CY_SET_XTND_REG16((void CYFAR *)(CYREG_CLKDIST_DCFG0_CFG0), 0x0002u);
 235:Generated_Source\PSoC5/cyfitter_cfg.c **** 	CY_SET_XTND_REG8((void CYFAR *)(CYREG_CLKDIST_DCFG0_CFG0 + 0x2u), 0x18u);
 236:Generated_Source\PSoC5/cyfitter_cfg.c **** 	CY_SET_XTND_REG16((void CYFAR *)(CYREG_CLKDIST_DCFG1_CFG0), 0x015Fu);
 237:Generated_Source\PSoC5/cyfitter_cfg.c **** 	CY_SET_XTND_REG8((void CYFAR *)(CYREG_CLKDIST_DCFG1_CFG0 + 0x2u), 0x18u);
 238:Generated_Source\PSoC5/cyfitter_cfg.c **** 	CY_SET_XTND_REG16((void CYFAR *)(CYREG_CLKDIST_DCFG2_CFG0), 0x01ADu);
 239:Generated_Source\PSoC5/cyfitter_cfg.c **** 	CY_SET_XTND_REG8((void CYFAR *)(CYREG_CLKDIST_DCFG2_CFG0 + 0x2u), 0x18u);
 240:Generated_Source\PSoC5/cyfitter_cfg.c **** 
 241:Generated_Source\PSoC5/cyfitter_cfg.c **** 	/* Configure ILO based on settings from Clock DWR */
 242:Generated_Source\PSoC5/cyfitter_cfg.c **** 	CY_SET_XTND_REG8((void CYFAR *)(CYREG_SLOWCLK_ILO_CR0), 0x06u);
 243:Generated_Source\PSoC5/cyfitter_cfg.c **** 	CY_SET_XTND_REG8((void CYFAR *)(CYREG_CLKDIST_CR), 0x08u);
 244:Generated_Source\PSoC5/cyfitter_cfg.c **** 
 245:Generated_Source\PSoC5/cyfitter_cfg.c **** 	/* Configure XTAL based on settings from Clock DWR */
 246:Generated_Source\PSoC5/cyfitter_cfg.c **** 	CY_SET_XTND_REG16((void CYFAR *)(CYREG_FASTCLK_XMHZ_CFG0), 0x3313u);
 247:Generated_Source\PSoC5/cyfitter_cfg.c **** 	CY_SET_XTND_REG8((void CYFAR *)(CYREG_FASTCLK_XMHZ_CSR), 0x05u);
 248:Generated_Source\PSoC5/cyfitter_cfg.c **** 	/* Wait up to 130000us for the XTAL to lock */
 249:Generated_Source\PSoC5/cyfitter_cfg.c **** 	CY_GET_XTND_REG8((void CYFAR *)CYREG_FASTCLK_XMHZ_CSR);
 250:Generated_Source\PSoC5/cyfitter_cfg.c **** 	for (timeout = 130000u / 10u; (timeout > 0u) && ((CY_GET_XTND_REG8((void CYFAR *)CYREG_FASTCLK_XMH
 251:Generated_Source\PSoC5/cyfitter_cfg.c **** 	{ 
 252:Generated_Source\PSoC5/cyfitter_cfg.c **** 		
 253:Generated_Source\PSoC5/cyfitter_cfg.c **** 		CyDelayCycles(10u * 48u); /* Delay 10us based on 48MHz clock */
 254:Generated_Source\PSoC5/cyfitter_cfg.c **** 	}
 255:Generated_Source\PSoC5/cyfitter_cfg.c **** 	if (timeout == 0u)
 256:Generated_Source\PSoC5/cyfitter_cfg.c **** 	{
 257:Generated_Source\PSoC5/cyfitter_cfg.c **** 		CyClockStartupError(CYCLOCKSTART_XTAL_ERROR);
 258:Generated_Source\PSoC5/cyfitter_cfg.c **** 	}
 259:Generated_Source\PSoC5/cyfitter_cfg.c **** 	CY_SET_XTND_REG8((void CYFAR *)(CYREG_CLKDIST_CR), 0x48u);
 260:Generated_Source\PSoC5/cyfitter_cfg.c **** 
 261:Generated_Source\PSoC5/cyfitter_cfg.c **** 	/* Configure IMO based on settings from Clock DWR */
 262:Generated_Source\PSoC5/cyfitter_cfg.c **** 	CY_SET_XTND_REG8((void CYFAR *)(CYREG_FASTCLK_IMO_CR), 0x70u);
 263:Generated_Source\PSoC5/cyfitter_cfg.c **** 
 264:Generated_Source\PSoC5/cyfitter_cfg.c **** 	/* Configure PLL based on settings from Clock DWR */
 265:Generated_Source\PSoC5/cyfitter_cfg.c **** 	CY_SET_XTND_REG16((void CYFAR *)(CYREG_FASTCLK_PLL_P), 0x070Bu);
 266:Generated_Source\PSoC5/cyfitter_cfg.c **** 	CY_SET_XTND_REG16((void CYFAR *)(CYREG_FASTCLK_PLL_CFG0), 0x1251u);
 267:Generated_Source\PSoC5/cyfitter_cfg.c **** 	/* Wait up to 250us for the PLL to lock */
 268:Generated_Source\PSoC5/cyfitter_cfg.c **** 	pllLock = 0u;
 269:Generated_Source\PSoC5/cyfitter_cfg.c **** 	for (timeout = 250u / 10u; (timeout > 0u) && (pllLock != 0x03u); timeout--)
 270:Generated_Source\PSoC5/cyfitter_cfg.c **** 	{ 
 271:Generated_Source\PSoC5/cyfitter_cfg.c **** 		pllLock = 0x03u & ((uint8)((uint8)pllLock << 1) | ((CY_GET_XTND_REG8((void CYFAR *)CYREG_FASTCLK_
 272:Generated_Source\PSoC5/cyfitter_cfg.c **** 		CyDelayCycles(10u * 48u); /* Delay 10us based on 48MHz clock */
 273:Generated_Source\PSoC5/cyfitter_cfg.c **** 	}
ARM GAS  C:\Users\urdjt\AppData\Local\Temp\ccFfW7O9.s 			page 8


 274:Generated_Source\PSoC5/cyfitter_cfg.c **** 	/* If we ran out of time the PLL didn't lock so go to the error function */
 275:Generated_Source\PSoC5/cyfitter_cfg.c **** 	if (timeout == 0u)
 276:Generated_Source\PSoC5/cyfitter_cfg.c **** 	{
 277:Generated_Source\PSoC5/cyfitter_cfg.c **** 		CyClockStartupError(CYCLOCKSTART_PLL_ERROR);
 278:Generated_Source\PSoC5/cyfitter_cfg.c **** 	}
 279:Generated_Source\PSoC5/cyfitter_cfg.c **** 
 280:Generated_Source\PSoC5/cyfitter_cfg.c **** 	/* Configure Bus/Master Clock based on settings from Clock DWR */
 281:Generated_Source\PSoC5/cyfitter_cfg.c **** 	CY_SET_XTND_REG16((void CYFAR *)(CYREG_CLKDIST_MSTR0), 0x0100u);
 282:Generated_Source\PSoC5/cyfitter_cfg.c **** 	CY_SET_XTND_REG8((void CYFAR *)(CYREG_CLKDIST_MSTR0), 0x07u);
 283:Generated_Source\PSoC5/cyfitter_cfg.c **** 	CY_SET_XTND_REG8((void CYFAR *)(CYREG_CLKDIST_BCFG0), 0x00u);
 284:Generated_Source\PSoC5/cyfitter_cfg.c **** 	CY_SET_XTND_REG8((void CYFAR *)(CYREG_CLKDIST_BCFG2), 0x48u);
 285:Generated_Source\PSoC5/cyfitter_cfg.c **** 	CY_SET_XTND_REG8((void CYFAR *)(CYREG_CLKDIST_MSTR0), 0x00u);
 286:Generated_Source\PSoC5/cyfitter_cfg.c **** 
 287:Generated_Source\PSoC5/cyfitter_cfg.c **** 	/* Configure USB Clock based on settings from Clock DWR */
 288:Generated_Source\PSoC5/cyfitter_cfg.c **** 	CY_SET_XTND_REG8((void CYFAR *)(CYREG_CLKDIST_UCFG), 0x00u);
 289:Generated_Source\PSoC5/cyfitter_cfg.c **** 	CY_SET_XTND_REG8((void CYFAR *)(CYREG_CLKDIST_LD), 0x02u);
 290:Generated_Source\PSoC5/cyfitter_cfg.c **** 
 291:Generated_Source\PSoC5/cyfitter_cfg.c **** 	CY_SET_XTND_REG8((void CYFAR *)(CYREG_PM_ACT_CFG2), ((CY_GET_XTND_REG8((void CYFAR *)CYREG_PM_ACT_
 292:Generated_Source\PSoC5/cyfitter_cfg.c **** }
 293:Generated_Source\PSoC5/cyfitter_cfg.c **** 
 294:Generated_Source\PSoC5/cyfitter_cfg.c **** 
 295:Generated_Source\PSoC5/cyfitter_cfg.c **** /* Analog API Functions */
 296:Generated_Source\PSoC5/cyfitter_cfg.c **** 
 297:Generated_Source\PSoC5/cyfitter_cfg.c **** 
 298:Generated_Source\PSoC5/cyfitter_cfg.c **** /*******************************************************************************
 299:Generated_Source\PSoC5/cyfitter_cfg.c **** * Function Name: AnalogSetDefault
 300:Generated_Source\PSoC5/cyfitter_cfg.c **** ********************************************************************************
 301:Generated_Source\PSoC5/cyfitter_cfg.c **** *
 302:Generated_Source\PSoC5/cyfitter_cfg.c **** * Summary:
 303:Generated_Source\PSoC5/cyfitter_cfg.c **** *  Sets up the analog portions of the chip to default values based on chip
 304:Generated_Source\PSoC5/cyfitter_cfg.c **** *  configuration options from the project.
 305:Generated_Source\PSoC5/cyfitter_cfg.c **** *
 306:Generated_Source\PSoC5/cyfitter_cfg.c **** * Parameters:
 307:Generated_Source\PSoC5/cyfitter_cfg.c **** *  void
 308:Generated_Source\PSoC5/cyfitter_cfg.c **** *
 309:Generated_Source\PSoC5/cyfitter_cfg.c **** * Return:
 310:Generated_Source\PSoC5/cyfitter_cfg.c **** *  void
 311:Generated_Source\PSoC5/cyfitter_cfg.c **** *
 312:Generated_Source\PSoC5/cyfitter_cfg.c **** *******************************************************************************/
 313:Generated_Source\PSoC5/cyfitter_cfg.c **** static void AnalogSetDefault(void);
 314:Generated_Source\PSoC5/cyfitter_cfg.c **** static void AnalogSetDefault(void)
 315:Generated_Source\PSoC5/cyfitter_cfg.c **** {
 124              		.loc 1 315 0
 125              		.cfi_startproc
 126              		@ args = 0, pretend = 0, frame = 0
 127              		@ frame_needed = 0, uses_anonymous_args = 0
 128              		@ link register save eliminated.
 316:Generated_Source\PSoC5/cyfitter_cfg.c **** 	uint8 bg_xover_inl_trim = CY_GET_XTND_REG8((void CYFAR *)(CYREG_FLSHID_MFG_CFG_BG_XOVER_INL_TRIM +
 129              		.loc 1 316 0
 130 0000 0F4B     		ldr	r3, .L10
 131 0002 1B78     		ldrb	r3, [r3]	@ zero_extendqisi2
 132 0004 DBB2     		uxtb	r3, r3
 133              	.LVL12:
 317:Generated_Source\PSoC5/cyfitter_cfg.c **** 	CY_SET_XTND_REG8((void CYFAR *)(CYREG_BG_DFT0), (bg_xover_inl_trim & 0x07u));
 134              		.loc 1 317 0
 135 0006 03F00701 		and	r1, r3, #7
 136 000a 0E4A     		ldr	r2, .L10+4
ARM GAS  C:\Users\urdjt\AppData\Local\Temp\ccFfW7O9.s 			page 9


 137 000c 1170     		strb	r1, [r2]
 318:Generated_Source\PSoC5/cyfitter_cfg.c **** 	CY_SET_XTND_REG8((void CYFAR *)(CYREG_BG_DFT1), ((bg_xover_inl_trim >> 4) & 0x0Fu));
 138              		.loc 1 318 0
 139 000e 1B09     		lsrs	r3, r3, #4
 140              	.LVL13:
 141 0010 0132     		adds	r2, r2, #1
 142 0012 1370     		strb	r3, [r2]
 319:Generated_Source\PSoC5/cyfitter_cfg.c **** 	CY_SET_XTND_REG8((void CYFAR *)CYREG_PRT3_AG, 0x20u);
 143              		.loc 1 319 0
 144 0014 2023     		movs	r3, #32
 145 0016 A2F23272 		subw	r2, r2, #1842
 146 001a 1370     		strb	r3, [r2]
 320:Generated_Source\PSoC5/cyfitter_cfg.c **** 	CY_SET_XTND_REG8((void CYFAR *)CYREG_DAC1_SW0, 0x02u);
 147              		.loc 1 320 0
 148 001c 0222     		movs	r2, #2
 149 001e 0A49     		ldr	r1, .L10+8
 150 0020 0A70     		strb	r2, [r1]
 321:Generated_Source\PSoC5/cyfitter_cfg.c **** 	CY_SET_XTND_REG8((void CYFAR *)CYREG_DAC3_SW0, 0x10u);
 151              		.loc 1 321 0
 152 0022 1021     		movs	r1, #16
 153 0024 0948     		ldr	r0, .L10+12
 154 0026 0170     		strb	r1, [r0]
 322:Generated_Source\PSoC5/cyfitter_cfg.c **** 	CY_SET_XTND_REG8((void CYFAR *)CYREG_CMP1_SW0, 0x20u);
 155              		.loc 1 322 0
 156 0028 3030     		adds	r0, r0, #48
 157 002a 0370     		strb	r3, [r0]
 323:Generated_Source\PSoC5/cyfitter_cfg.c **** 	CY_SET_XTND_REG8((void CYFAR *)CYREG_CMP1_SW4, 0x10u);
 158              		.loc 1 323 0
 159 002c 0430     		adds	r0, r0, #4
 160 002e 0170     		strb	r1, [r0]
 324:Generated_Source\PSoC5/cyfitter_cfg.c **** 	CY_SET_XTND_REG8((void CYFAR *)CYREG_CMP3_SW0, 0x02u);
 161              		.loc 1 324 0
 162 0030 0749     		ldr	r1, .L10+16
 163 0032 0A70     		strb	r2, [r1]
 325:Generated_Source\PSoC5/cyfitter_cfg.c **** 	CY_SET_XTND_REG8((void CYFAR *)CYREG_CMP3_SW4, 0x20u);
 164              		.loc 1 325 0
 165 0034 074A     		ldr	r2, .L10+20
 166 0036 1370     		strb	r3, [r2]
 326:Generated_Source\PSoC5/cyfitter_cfg.c **** 	CY_SET_XTND_REG8((void CYFAR *)CYREG_PUMP_CR0, 0x44u);
 167              		.loc 1 326 0
 168 0038 4422     		movs	r2, #68
 169 003a 074B     		ldr	r3, .L10+24
 170 003c 1A70     		strb	r2, [r3]
 171 003e 7047     		bx	lr
 172              	.L11:
 173              		.align	2
 174              	.L10:
 175 0040 CF010049 		.word	1224737231
 176 0044 6E580040 		.word	1073764462
 177 0048 885A0040 		.word	1073765000
 178 004c 985A0040 		.word	1073765016
 179 0050 D85A0040 		.word	1073765080
 180 0054 DC5A0040 		.word	1073765084
 181 0058 76580040 		.word	1073764470
 182              		.cfi_endproc
 183              	.LFE6:
 184              		.size	AnalogSetDefault, .-AnalogSetDefault
ARM GAS  C:\Users\urdjt\AppData\Local\Temp\ccFfW7O9.s 			page 10


 185              		.section	.text.CYMEMZERO,"ax",%progbits
 186              		.align	2
 187              		.thumb
 188              		.thumb_func
 189              		.type	CYMEMZERO, %function
 190              	CYMEMZERO:
 191              	.LFB0:
  78:Generated_Source\PSoC5/cyfitter_cfg.c **** 	(void)memset(s, 0, n);
 192              		.loc 1 78 0
 193              		.cfi_startproc
 194              		@ args = 0, pretend = 0, frame = 0
 195              		@ frame_needed = 0, uses_anonymous_args = 0
 196              	.LVL14:
 197 0000 08B5     		push	{r3, lr}
 198              		.cfi_def_cfa_offset 8
 199              		.cfi_offset 3, -8
 200              		.cfi_offset 14, -4
  79:Generated_Source\PSoC5/cyfitter_cfg.c **** }
 201              		.loc 1 79 0
 202 0002 0A46     		mov	r2, r1
 203 0004 0021     		movs	r1, #0
 204              	.LVL15:
 205 0006 FFF7FEFF 		bl	memset
 206              	.LVL16:
 207 000a 08BD     		pop	{r3, pc}
 208              		.cfi_endproc
 209              	.LFE0:
 210              		.size	CYMEMZERO, .-CYMEMZERO
 211              		.section	.text.ClockSetup,"ax",%progbits
 212              		.align	2
 213              		.thumb
 214              		.thumb_func
 215              		.type	ClockSetup, %function
 216              	ClockSetup:
 217              	.LFB5:
 228:Generated_Source\PSoC5/cyfitter_cfg.c **** 	uint32 timeout;
 218              		.loc 1 228 0
 219              		.cfi_startproc
 220              		@ args = 0, pretend = 0, frame = 0
 221              		@ frame_needed = 0, uses_anonymous_args = 0
 222 0000 38B5     		push	{r3, r4, r5, lr}
 223              		.cfi_def_cfa_offset 16
 224              		.cfi_offset 3, -16
 225              		.cfi_offset 4, -12
 226              		.cfi_offset 5, -8
 227              		.cfi_offset 14, -4
 234:Generated_Source\PSoC5/cyfitter_cfg.c **** 	CY_SET_XTND_REG8((void CYFAR *)(CYREG_CLKDIST_DCFG0_CFG0 + 0x2u), 0x18u);
 228              		.loc 1 234 0
 229 0002 0222     		movs	r2, #2
 230 0004 384B     		ldr	r3, .L24
 231 0006 1A80     		strh	r2, [r3]	@ movhi
 235:Generated_Source\PSoC5/cyfitter_cfg.c **** 	CY_SET_XTND_REG16((void CYFAR *)(CYREG_CLKDIST_DCFG1_CFG0), 0x015Fu);
 232              		.loc 1 235 0
 233 0008 1823     		movs	r3, #24
 234 000a 384A     		ldr	r2, .L24+4
 235 000c 1370     		strb	r3, [r2]
 236:Generated_Source\PSoC5/cyfitter_cfg.c **** 	CY_SET_XTND_REG8((void CYFAR *)(CYREG_CLKDIST_DCFG1_CFG0 + 0x2u), 0x18u);
ARM GAS  C:\Users\urdjt\AppData\Local\Temp\ccFfW7O9.s 			page 11


 236              		.loc 1 236 0
 237 000e 40F25F11 		movw	r1, #351
 238 0012 0232     		adds	r2, r2, #2
 239 0014 1180     		strh	r1, [r2]	@ movhi
 237:Generated_Source\PSoC5/cyfitter_cfg.c **** 	CY_SET_XTND_REG16((void CYFAR *)(CYREG_CLKDIST_DCFG2_CFG0), 0x01ADu);
 240              		.loc 1 237 0
 241 0016 0232     		adds	r2, r2, #2
 242 0018 1370     		strb	r3, [r2]
 238:Generated_Source\PSoC5/cyfitter_cfg.c **** 	CY_SET_XTND_REG8((void CYFAR *)(CYREG_CLKDIST_DCFG2_CFG0 + 0x2u), 0x18u);
 243              		.loc 1 238 0
 244 001a 40F2AD11 		movw	r1, #429
 245 001e 0232     		adds	r2, r2, #2
 246 0020 1180     		strh	r1, [r2]	@ movhi
 239:Generated_Source\PSoC5/cyfitter_cfg.c **** 
 247              		.loc 1 239 0
 248 0022 0232     		adds	r2, r2, #2
 249 0024 1370     		strb	r3, [r2]
 242:Generated_Source\PSoC5/cyfitter_cfg.c **** 	CY_SET_XTND_REG8((void CYFAR *)(CYREG_CLKDIST_CR), 0x08u);
 250              		.loc 1 242 0
 251 0026 0622     		movs	r2, #6
 252 0028 314B     		ldr	r3, .L24+8
 253 002a 1A70     		strb	r2, [r3]
 243:Generated_Source\PSoC5/cyfitter_cfg.c **** 
 254              		.loc 1 243 0
 255 002c 0822     		movs	r2, #8
 256 002e 4FF04023 		mov	r3, #1073758208
 257 0032 1A70     		strb	r2, [r3]
 246:Generated_Source\PSoC5/cyfitter_cfg.c **** 	CY_SET_XTND_REG8((void CYFAR *)(CYREG_FASTCLK_XMHZ_CSR), 0x05u);
 258              		.loc 1 246 0
 259 0034 43F21332 		movw	r2, #13075
 260 0038 03F21223 		addw	r3, r3, #530
 261 003c 1A80     		strh	r2, [r3]	@ movhi
 247:Generated_Source\PSoC5/cyfitter_cfg.c **** 	/* Wait up to 130000us for the XTAL to lock */
 262              		.loc 1 247 0
 263 003e 023B     		subs	r3, r3, #2
 264 0040 0522     		movs	r2, #5
 265 0042 1A70     		strb	r2, [r3]
 249:Generated_Source\PSoC5/cyfitter_cfg.c **** 	for (timeout = 130000u / 10u; (timeout > 0u) && ((CY_GET_XTND_REG8((void CYFAR *)CYREG_FASTCLK_XMH
 266              		.loc 1 249 0
 267 0044 1B78     		ldrb	r3, [r3]	@ zero_extendqisi2
 268              	.LVL17:
 250:Generated_Source\PSoC5/cyfitter_cfg.c **** 	{ 
 269              		.loc 1 250 0
 270 0046 43F2C824 		movw	r4, #13000
 271 004a 04E0     		b	.L15
 272              	.LVL18:
 273              	.L17:
 253:Generated_Source\PSoC5/cyfitter_cfg.c **** 	}
 274              		.loc 1 253 0 discriminator 4
 275 004c 4FF4F070 		mov	r0, #480
 276 0050 FFF7FEFF 		bl	CyDelayCycles
 277              	.LVL19:
 250:Generated_Source\PSoC5/cyfitter_cfg.c **** 	{ 
 278              		.loc 1 250 0 discriminator 4
 279 0054 013C     		subs	r4, r4, #1
 280              	.LVL20:
 281              	.L15:
ARM GAS  C:\Users\urdjt\AppData\Local\Temp\ccFfW7O9.s 			page 12


 250:Generated_Source\PSoC5/cyfitter_cfg.c **** 	{ 
 282              		.loc 1 250 0 is_stmt 0 discriminator 1
 283 0056 24B1     		cbz	r4, .L16
 250:Generated_Source\PSoC5/cyfitter_cfg.c **** 	{ 
 284              		.loc 1 250 0 discriminator 3
 285 0058 264B     		ldr	r3, .L24+12
 286 005a 1B78     		ldrb	r3, [r3]	@ zero_extendqisi2
 287 005c 13F0800F 		tst	r3, #128
 288 0060 F4D1     		bne	.L17
 289              	.L16:
 255:Generated_Source\PSoC5/cyfitter_cfg.c **** 	{
 290              		.loc 1 255 0 is_stmt 1
 291 0062 14B9     		cbnz	r4, .L18
 257:Generated_Source\PSoC5/cyfitter_cfg.c **** 	}
 292              		.loc 1 257 0
 293 0064 0120     		movs	r0, #1
 294 0066 FFF7FEFF 		bl	CyClockStartupError
 295              	.LVL21:
 296              	.L18:
 259:Generated_Source\PSoC5/cyfitter_cfg.c **** 
 297              		.loc 1 259 0
 298 006a 4822     		movs	r2, #72
 299 006c 4FF04023 		mov	r3, #1073758208
 300 0070 1A70     		strb	r2, [r3]
 262:Generated_Source\PSoC5/cyfitter_cfg.c **** 
 301              		.loc 1 262 0
 302 0072 7022     		movs	r2, #112
 303 0074 03F50073 		add	r3, r3, #512
 304 0078 1A70     		strb	r2, [r3]
 265:Generated_Source\PSoC5/cyfitter_cfg.c **** 	CY_SET_XTND_REG16((void CYFAR *)(CYREG_FASTCLK_PLL_CFG0), 0x1251u);
 305              		.loc 1 265 0
 306 007a 40F20B72 		movw	r2, #1803
 307 007e 2233     		adds	r3, r3, #34
 308 0080 1A80     		strh	r2, [r3]	@ movhi
 266:Generated_Source\PSoC5/cyfitter_cfg.c **** 	/* Wait up to 250us for the PLL to lock */
 309              		.loc 1 266 0
 310 0082 41F25122 		movw	r2, #4689
 311 0086 023B     		subs	r3, r3, #2
 312 0088 1A80     		strh	r2, [r3]	@ movhi
 313              	.LVL22:
 268:Generated_Source\PSoC5/cyfitter_cfg.c **** 	for (timeout = 250u / 10u; (timeout > 0u) && (pllLock != 0x03u); timeout--)
 314              		.loc 1 268 0
 315 008a 0024     		movs	r4, #0
 269:Generated_Source\PSoC5/cyfitter_cfg.c **** 	{ 
 316              		.loc 1 269 0
 317 008c 1925     		movs	r5, #25
 318 008e 0CE0     		b	.L19
 319              	.LVL23:
 320              	.L21:
 271:Generated_Source\PSoC5/cyfitter_cfg.c **** 		CyDelayCycles(10u * 48u); /* Delay 10us based on 48MHz clock */
 321              		.loc 1 271 0 discriminator 4
 322 0090 194B     		ldr	r3, .L24+16
 323 0092 1B78     		ldrb	r3, [r3]	@ zero_extendqisi2
 324 0094 03F00103 		and	r3, r3, #1
 325 0098 43EA4404 		orr	r4, r3, r4, lsl #1
 326              	.LVL24:
 327 009c 04F00304 		and	r4, r4, #3
ARM GAS  C:\Users\urdjt\AppData\Local\Temp\ccFfW7O9.s 			page 13


 328              	.LVL25:
 272:Generated_Source\PSoC5/cyfitter_cfg.c **** 	}
 329              		.loc 1 272 0 discriminator 4
 330 00a0 4FF4F070 		mov	r0, #480
 331 00a4 FFF7FEFF 		bl	CyDelayCycles
 332              	.LVL26:
 269:Generated_Source\PSoC5/cyfitter_cfg.c **** 	{ 
 333              		.loc 1 269 0 discriminator 4
 334 00a8 013D     		subs	r5, r5, #1
 335              	.LVL27:
 336              	.L19:
 269:Generated_Source\PSoC5/cyfitter_cfg.c **** 	{ 
 337              		.loc 1 269 0 is_stmt 0 discriminator 1
 338 00aa 0DB1     		cbz	r5, .L20
 269:Generated_Source\PSoC5/cyfitter_cfg.c **** 	{ 
 339              		.loc 1 269 0 discriminator 3
 340 00ac 032C     		cmp	r4, #3
 341 00ae EFD1     		bne	.L21
 342              	.L20:
 275:Generated_Source\PSoC5/cyfitter_cfg.c **** 	{
 343              		.loc 1 275 0 is_stmt 1
 344 00b0 15B9     		cbnz	r5, .L22
 277:Generated_Source\PSoC5/cyfitter_cfg.c **** 	}
 345              		.loc 1 277 0
 346 00b2 0320     		movs	r0, #3
 347 00b4 FFF7FEFF 		bl	CyClockStartupError
 348              	.LVL28:
 349              	.L22:
 281:Generated_Source\PSoC5/cyfitter_cfg.c **** 	CY_SET_XTND_REG8((void CYFAR *)(CYREG_CLKDIST_MSTR0), 0x07u);
 350              		.loc 1 281 0
 351 00b8 104A     		ldr	r2, .L24+20
 352 00ba 4FF48073 		mov	r3, #256
 353 00be 1380     		strh	r3, [r2]	@ movhi
 282:Generated_Source\PSoC5/cyfitter_cfg.c **** 	CY_SET_XTND_REG8((void CYFAR *)(CYREG_CLKDIST_BCFG0), 0x00u);
 354              		.loc 1 282 0
 355 00c0 0723     		movs	r3, #7
 356 00c2 1370     		strb	r3, [r2]
 283:Generated_Source\PSoC5/cyfitter_cfg.c **** 	CY_SET_XTND_REG8((void CYFAR *)(CYREG_CLKDIST_BCFG2), 0x48u);
 357              		.loc 1 283 0
 358 00c4 0023     		movs	r3, #0
 359 00c6 0E49     		ldr	r1, .L24+24
 360 00c8 0B70     		strb	r3, [r1]
 284:Generated_Source\PSoC5/cyfitter_cfg.c **** 	CY_SET_XTND_REG8((void CYFAR *)(CYREG_CLKDIST_MSTR0), 0x00u);
 361              		.loc 1 284 0
 362 00ca 4820     		movs	r0, #72
 363 00cc 0231     		adds	r1, r1, #2
 364 00ce 0870     		strb	r0, [r1]
 285:Generated_Source\PSoC5/cyfitter_cfg.c **** 
 365              		.loc 1 285 0
 366 00d0 1370     		strb	r3, [r2]
 288:Generated_Source\PSoC5/cyfitter_cfg.c **** 	CY_SET_XTND_REG8((void CYFAR *)(CYREG_CLKDIST_LD), 0x02u);
 367              		.loc 1 288 0
 368 00d2 0532     		adds	r2, r2, #5
 369 00d4 1370     		strb	r3, [r2]
 289:Generated_Source\PSoC5/cyfitter_cfg.c **** 
 370              		.loc 1 289 0
 371 00d6 0222     		movs	r2, #2
ARM GAS  C:\Users\urdjt\AppData\Local\Temp\ccFfW7O9.s 			page 14


 372 00d8 0A4B     		ldr	r3, .L24+28
 373 00da 1A70     		strb	r2, [r3]
 291:Generated_Source\PSoC5/cyfitter_cfg.c **** }
 374              		.loc 1 291 0
 375 00dc 0A4A     		ldr	r2, .L24+32
 376 00de 1378     		ldrb	r3, [r2]	@ zero_extendqisi2
 377 00e0 43F00703 		orr	r3, r3, #7
 378 00e4 1370     		strb	r3, [r2]
 379 00e6 38BD     		pop	{r3, r4, r5, pc}
 380              	.LVL29:
 381              	.L25:
 382              		.align	2
 383              	.L24:
 384 00e8 80400040 		.word	1073758336
 385 00ec 82400040 		.word	1073758338
 386 00f0 00430040 		.word	1073758976
 387 00f4 10420040 		.word	1073758736
 388 00f8 25420040 		.word	1073758757
 389 00fc 04400040 		.word	1073758212
 390 0100 06400040 		.word	1073758214
 391 0104 01400040 		.word	1073758209
 392 0108 A2430040 		.word	1073759138
 393              		.cfi_endproc
 394              	.LFE5:
 395              		.size	ClockSetup, .-ClockSetup
 396              		.section	.text.CYCONFIGCPY,"ax",%progbits
 397              		.align	2
 398              		.thumb
 399              		.thumb_func
 400              		.type	CYCONFIGCPY, %function
 401              	CYCONFIGCPY:
 402              	.LFB1:
  85:Generated_Source\PSoC5/cyfitter_cfg.c **** 	(void)memcpy(dest, src, n);
 403              		.loc 1 85 0
 404              		.cfi_startproc
 405              		@ args = 0, pretend = 0, frame = 0
 406              		@ frame_needed = 0, uses_anonymous_args = 0
 407              	.LVL30:
 408 0000 08B5     		push	{r3, lr}
 409              		.cfi_def_cfa_offset 8
 410              		.cfi_offset 3, -8
 411              		.cfi_offset 14, -4
  86:Generated_Source\PSoC5/cyfitter_cfg.c **** }
 412              		.loc 1 86 0
 413 0002 FFF7FEFF 		bl	memcpy
 414              	.LVL31:
 415 0006 08BD     		pop	{r3, pc}
 416              		.cfi_endproc
 417              	.LFE1:
 418              		.size	CYCONFIGCPY, .-CYCONFIGCPY
 419              		.section	.text.SetAnalogRoutingPumps,"ax",%progbits
 420              		.align	2
 421              		.global	SetAnalogRoutingPumps
 422              		.thumb
 423              		.thumb_func
 424              		.type	SetAnalogRoutingPumps, %function
 425              	SetAnalogRoutingPumps:
ARM GAS  C:\Users\urdjt\AppData\Local\Temp\ccFfW7O9.s 			page 15


 426              	.LFB7:
 327:Generated_Source\PSoC5/cyfitter_cfg.c **** }
 328:Generated_Source\PSoC5/cyfitter_cfg.c **** 
 329:Generated_Source\PSoC5/cyfitter_cfg.c **** 
 330:Generated_Source\PSoC5/cyfitter_cfg.c **** /*******************************************************************************
 331:Generated_Source\PSoC5/cyfitter_cfg.c **** * Function Name: SetAnalogRoutingPumps
 332:Generated_Source\PSoC5/cyfitter_cfg.c **** ********************************************************************************
 333:Generated_Source\PSoC5/cyfitter_cfg.c **** *
 334:Generated_Source\PSoC5/cyfitter_cfg.c **** * Summary:
 335:Generated_Source\PSoC5/cyfitter_cfg.c **** * Enables or disables the analog pumps feeding analog routing switches.
 336:Generated_Source\PSoC5/cyfitter_cfg.c **** * Intended to be called at startup, based on the Vdda system configuration;
 337:Generated_Source\PSoC5/cyfitter_cfg.c **** * may be called during operation when the user informs us that the Vdda voltage
 338:Generated_Source\PSoC5/cyfitter_cfg.c **** * crossed the pump threshold.
 339:Generated_Source\PSoC5/cyfitter_cfg.c **** *
 340:Generated_Source\PSoC5/cyfitter_cfg.c **** * Parameters:
 341:Generated_Source\PSoC5/cyfitter_cfg.c **** *  enabled - 1 to enable the pumps, 0 to disable the pumps
 342:Generated_Source\PSoC5/cyfitter_cfg.c **** *
 343:Generated_Source\PSoC5/cyfitter_cfg.c **** * Return:
 344:Generated_Source\PSoC5/cyfitter_cfg.c **** *  void
 345:Generated_Source\PSoC5/cyfitter_cfg.c **** *
 346:Generated_Source\PSoC5/cyfitter_cfg.c **** *******************************************************************************/
 347:Generated_Source\PSoC5/cyfitter_cfg.c **** void SetAnalogRoutingPumps(uint8 enabled)
 348:Generated_Source\PSoC5/cyfitter_cfg.c **** {
 427              		.loc 1 348 0
 428              		.cfi_startproc
 429              		@ args = 0, pretend = 0, frame = 0
 430              		@ frame_needed = 0, uses_anonymous_args = 0
 431              		@ link register save eliminated.
 432              	.LVL32:
 349:Generated_Source\PSoC5/cyfitter_cfg.c **** 	uint8 regValue = CY_GET_XTND_REG8((void CYFAR *)CYREG_PUMP_CR0);
 433              		.loc 1 349 0
 434 0000 054B     		ldr	r3, .L31
 435 0002 1B78     		ldrb	r3, [r3]	@ zero_extendqisi2
 436 0004 DBB2     		uxtb	r3, r3
 437              	.LVL33:
 350:Generated_Source\PSoC5/cyfitter_cfg.c **** 	if (enabled != 0u)
 438              		.loc 1 350 0
 439 0006 10B1     		cbz	r0, .L29
 351:Generated_Source\PSoC5/cyfitter_cfg.c **** 	{
 352:Generated_Source\PSoC5/cyfitter_cfg.c **** 		regValue |= 0x22u;
 440              		.loc 1 352 0
 441 0008 43F02203 		orr	r3, r3, #34
 442              	.LVL34:
 443 000c 01E0     		b	.L30
 444              	.L29:
 353:Generated_Source\PSoC5/cyfitter_cfg.c **** 	}
 354:Generated_Source\PSoC5/cyfitter_cfg.c **** 	else
 355:Generated_Source\PSoC5/cyfitter_cfg.c **** 	{
 356:Generated_Source\PSoC5/cyfitter_cfg.c **** 		regValue &= (uint8)~0x22u;
 445              		.loc 1 356 0
 446 000e 03F0DD03 		and	r3, r3, #221
 447              	.LVL35:
 448              	.L30:
 357:Generated_Source\PSoC5/cyfitter_cfg.c **** 	}
 358:Generated_Source\PSoC5/cyfitter_cfg.c **** 	CY_SET_XTND_REG8((void CYFAR *)CYREG_PUMP_CR0, regValue);
 449              		.loc 1 358 0
 450 0012 014A     		ldr	r2, .L31
ARM GAS  C:\Users\urdjt\AppData\Local\Temp\ccFfW7O9.s 			page 16


 451 0014 1370     		strb	r3, [r2]
 452 0016 7047     		bx	lr
 453              	.L32:
 454              		.align	2
 455              	.L31:
 456 0018 76580040 		.word	1073764470
 457              		.cfi_endproc
 458              	.LFE7:
 459              		.size	SetAnalogRoutingPumps, .-SetAnalogRoutingPumps
 460              		.section	.text.cyfitter_cfg,"ax",%progbits
 461              		.align	2
 462              		.global	cyfitter_cfg
 463              		.thumb
 464              		.thumb_func
 465              		.type	cyfitter_cfg, %function
 466              	cyfitter_cfg:
 467              	.LFB8:
 359:Generated_Source\PSoC5/cyfitter_cfg.c **** }
 360:Generated_Source\PSoC5/cyfitter_cfg.c **** 
 361:Generated_Source\PSoC5/cyfitter_cfg.c **** 
 362:Generated_Source\PSoC5/cyfitter_cfg.c **** 
 363:Generated_Source\PSoC5/cyfitter_cfg.c **** 
 364:Generated_Source\PSoC5/cyfitter_cfg.c **** /*******************************************************************************
 365:Generated_Source\PSoC5/cyfitter_cfg.c **** * Function Name: cyfitter_cfg
 366:Generated_Source\PSoC5/cyfitter_cfg.c **** ********************************************************************************
 367:Generated_Source\PSoC5/cyfitter_cfg.c **** * Summary:
 368:Generated_Source\PSoC5/cyfitter_cfg.c **** *  This function is called by the start-up code for the selected device. It
 369:Generated_Source\PSoC5/cyfitter_cfg.c **** *  performs all of the necessary device configuration based on the design
 370:Generated_Source\PSoC5/cyfitter_cfg.c **** *  settings.  This includes settings from the Design Wide Resources (DWR) such
 371:Generated_Source\PSoC5/cyfitter_cfg.c **** *  as Clocks and Pins as well as any component configuration that is necessary.
 372:Generated_Source\PSoC5/cyfitter_cfg.c **** *
 373:Generated_Source\PSoC5/cyfitter_cfg.c **** * Parameters:
 374:Generated_Source\PSoC5/cyfitter_cfg.c **** *   void
 375:Generated_Source\PSoC5/cyfitter_cfg.c **** *
 376:Generated_Source\PSoC5/cyfitter_cfg.c **** * Return:
 377:Generated_Source\PSoC5/cyfitter_cfg.c **** *   void
 378:Generated_Source\PSoC5/cyfitter_cfg.c **** *
 379:Generated_Source\PSoC5/cyfitter_cfg.c **** *******************************************************************************/
 380:Generated_Source\PSoC5/cyfitter_cfg.c **** 
 381:Generated_Source\PSoC5/cyfitter_cfg.c **** void cyfitter_cfg(void)
 382:Generated_Source\PSoC5/cyfitter_cfg.c **** {
 468              		.loc 1 382 0
 469              		.cfi_startproc
 470              		@ args = 0, pretend = 0, frame = 0
 471              		@ frame_needed = 0, uses_anonymous_args = 0
 472 0000 38B5     		push	{r3, r4, r5, lr}
 473              		.cfi_def_cfa_offset 16
 474              		.cfi_offset 3, -16
 475              		.cfi_offset 4, -12
 476              		.cfi_offset 5, -8
 477              		.cfi_offset 14, -4
 383:Generated_Source\PSoC5/cyfitter_cfg.c **** #ifdef CYGlobalIntDisable
 384:Generated_Source\PSoC5/cyfitter_cfg.c **** 	/* Disable interrupts by default. Let user enable if/when they want. */
 385:Generated_Source\PSoC5/cyfitter_cfg.c **** 	CYGlobalIntDisable
 478              		.loc 1 385 0
 479              		.syntax unified
 480              	@ 385 "Generated_Source\PSoC5\cyfitter_cfg.c" 1
ARM GAS  C:\Users\urdjt\AppData\Local\Temp\ccFfW7O9.s 			page 17


 481 0002 72B6     		CPSID   i
 482              	@ 0 "" 2
 386:Generated_Source\PSoC5/cyfitter_cfg.c **** #endif
 387:Generated_Source\PSoC5/cyfitter_cfg.c **** 
 388:Generated_Source\PSoC5/cyfitter_cfg.c **** 	/* Enable/Disable Debug functionality based on settings from System DWR */
 389:Generated_Source\PSoC5/cyfitter_cfg.c **** 	CY_SET_XTND_REG8((void CYFAR *)CYREG_MLOGIC_DEBUG, (CY_GET_XTND_REG8((void CYFAR *)CYREG_MLOGIC_DE
 483              		.loc 1 389 0
 484              		.thumb
 485              		.syntax unified
 486 0004 344A     		ldr	r2, .L37
 487 0006 1378     		ldrb	r3, [r2]	@ zero_extendqisi2
 488 0008 43F00403 		orr	r3, r3, #4
 489 000c 1370     		strb	r3, [r2]
 490              	.LVL36:
 491              	.LBB3:
 390:Generated_Source\PSoC5/cyfitter_cfg.c **** 
 391:Generated_Source\PSoC5/cyfitter_cfg.c **** 	{
 392:Generated_Source\PSoC5/cyfitter_cfg.c **** 
 393:Generated_Source\PSoC5/cyfitter_cfg.c **** 		CYPACKED typedef struct {
 394:Generated_Source\PSoC5/cyfitter_cfg.c **** 			void CYFAR *address;
 395:Generated_Source\PSoC5/cyfitter_cfg.c **** 			uint16 size;
 396:Generated_Source\PSoC5/cyfitter_cfg.c **** 		} CYPACKED_ATTR cfg_memset_t;
 397:Generated_Source\PSoC5/cyfitter_cfg.c **** 
 398:Generated_Source\PSoC5/cyfitter_cfg.c **** 		static const cfg_memset_t CYCODE cfg_memset_list[] = {
 399:Generated_Source\PSoC5/cyfitter_cfg.c **** 			/* address, size */
 400:Generated_Source\PSoC5/cyfitter_cfg.c **** 			{(void CYFAR *)(CYREG_PRT5_DR), 32u},
 401:Generated_Source\PSoC5/cyfitter_cfg.c **** 			{(void CYFAR *)(CYREG_PRT12_DR), 16u},
 402:Generated_Source\PSoC5/cyfitter_cfg.c **** 			{(void CYFAR *)(CYREG_PRT15_DR), 16u},
 403:Generated_Source\PSoC5/cyfitter_cfg.c **** 			{(void CYFAR *)(CYDEV_UCFG_B0_P0_U0_BASE), 4096u},
 404:Generated_Source\PSoC5/cyfitter_cfg.c **** 			{(void CYFAR *)(CYDEV_UCFG_B1_P2_U0_BASE), 2048u},
 405:Generated_Source\PSoC5/cyfitter_cfg.c **** 			{(void CYFAR *)(CYDEV_UCFG_DSI0_BASE), 2560u},
 406:Generated_Source\PSoC5/cyfitter_cfg.c **** 			{(void CYFAR *)(CYDEV_UCFG_DSI12_BASE), 512u},
 407:Generated_Source\PSoC5/cyfitter_cfg.c **** 			{(void CYFAR *)(CYREG_BCTL0_MDCLK_EN), 32u},
 408:Generated_Source\PSoC5/cyfitter_cfg.c **** 		};
 409:Generated_Source\PSoC5/cyfitter_cfg.c **** 
 410:Generated_Source\PSoC5/cyfitter_cfg.c **** 		uint8 CYDATA i;
 411:Generated_Source\PSoC5/cyfitter_cfg.c **** 
 412:Generated_Source\PSoC5/cyfitter_cfg.c **** 		/* Zero out critical memory blocks before beginning configuration */
 413:Generated_Source\PSoC5/cyfitter_cfg.c **** 		for (i = 0u; i < (sizeof(cfg_memset_list)/sizeof(cfg_memset_list[0])); i++)
 492              		.loc 1 413 0
 493 000e 0024     		movs	r4, #0
 494 0010 0CE0     		b	.L34
 495              	.LVL37:
 496              	.L35:
 497              	.LBB4:
 414:Generated_Source\PSoC5/cyfitter_cfg.c **** 		{
 415:Generated_Source\PSoC5/cyfitter_cfg.c **** 			const cfg_memset_t CYCODE * CYDATA ms = &cfg_memset_list[i];
 416:Generated_Source\PSoC5/cyfitter_cfg.c **** 			CYMEMZERO(ms->address, (size_t)(uint32)(ms->size));
 498              		.loc 1 416 0 discriminator 3
 499 0012 324D     		ldr	r5, .L37+4
 500 0014 6300     		lsls	r3, r4, #1
 501 0016 1919     		adds	r1, r3, r4
 502 0018 4A00     		lsls	r2, r1, #1
 503 001a 1146     		mov	r1, r2
 504 001c 2A44     		add	r2, r2, r5
 505 001e 0846     		mov	r0, r1
 506 0020 9188     		ldrh	r1, [r2, #4]
ARM GAS  C:\Users\urdjt\AppData\Local\Temp\ccFfW7O9.s 			page 18


 507 0022 2858     		ldr	r0, [r5, r0]	@ unaligned
 508 0024 FFF7FEFF 		bl	CYMEMZERO
 509              	.LVL38:
 510              	.LBE4:
 413:Generated_Source\PSoC5/cyfitter_cfg.c **** 		{
 511              		.loc 1 413 0 discriminator 3
 512 0028 0134     		adds	r4, r4, #1
 513              	.LVL39:
 514 002a E4B2     		uxtb	r4, r4
 515              	.LVL40:
 516              	.L34:
 413:Generated_Source\PSoC5/cyfitter_cfg.c **** 		{
 517              		.loc 1 413 0 is_stmt 0 discriminator 1
 518 002c 072C     		cmp	r4, #7
 519 002e F0D9     		bls	.L35
 417:Generated_Source\PSoC5/cyfitter_cfg.c **** 		}
 418:Generated_Source\PSoC5/cyfitter_cfg.c **** 
 419:Generated_Source\PSoC5/cyfitter_cfg.c **** 		cfg_write_bytes32(cy_cfg_addr_table, cy_cfg_data_table);
 520              		.loc 1 419 0 is_stmt 1
 521 0030 2B49     		ldr	r1, .L37+8
 522 0032 4FF09040 		mov	r0, #1207959552
 523 0036 FFF7FEFF 		bl	cfg_write_bytes32
 524              	.LVL41:
 420:Generated_Source\PSoC5/cyfitter_cfg.c **** 
 421:Generated_Source\PSoC5/cyfitter_cfg.c **** 		/* Perform normal device configuration. Order is not critical for these items. */
 422:Generated_Source\PSoC5/cyfitter_cfg.c **** 		CY_SET_XTND_REG16((void CYFAR *)(CYREG_LUT1_CR), 0x0103u);
 525              		.loc 1 422 0
 526 003a 40F20312 		movw	r2, #259
 527 003e 294B     		ldr	r3, .L37+12
 528 0040 1A80     		strh	r2, [r3]	@ movhi
 423:Generated_Source\PSoC5/cyfitter_cfg.c **** 		CY_SET_XTND_REG16((void CYFAR *)(CYREG_LUT3_CR), 0x0303u);
 529              		.loc 1 423 0
 530 0042 40F20332 		movw	r2, #771
 531 0046 0433     		adds	r3, r3, #4
 532 0048 1A80     		strh	r2, [r3]	@ movhi
 424:Generated_Source\PSoC5/cyfitter_cfg.c **** 
 425:Generated_Source\PSoC5/cyfitter_cfg.c **** 		/* Enable digital routing */
 426:Generated_Source\PSoC5/cyfitter_cfg.c **** 		CY_SET_XTND_REG8((void CYFAR *)CYREG_BCTL0_BANK_CTL, CY_GET_XTND_REG8((void CYFAR *)CYREG_BCTL0_B
 533              		.loc 1 426 0
 534 004a 274A     		ldr	r2, .L37+16
 535 004c 1378     		ldrb	r3, [r2]	@ zero_extendqisi2
 536 004e 43F00203 		orr	r3, r3, #2
 537 0052 1370     		strb	r3, [r2]
 427:Generated_Source\PSoC5/cyfitter_cfg.c **** 		CY_SET_XTND_REG8((void CYFAR *)CYREG_BCTL1_BANK_CTL, CY_GET_XTND_REG8((void CYFAR *)CYREG_BCTL1_B
 538              		.loc 1 427 0
 539 0054 1032     		adds	r2, r2, #16
 540 0056 1378     		ldrb	r3, [r2]	@ zero_extendqisi2
 541 0058 43F00203 		orr	r3, r3, #2
 542 005c 1370     		strb	r3, [r2]
 428:Generated_Source\PSoC5/cyfitter_cfg.c **** 
 429:Generated_Source\PSoC5/cyfitter_cfg.c **** 		/* Enable UDB array */
 430:Generated_Source\PSoC5/cyfitter_cfg.c **** 		CY_SET_XTND_REG8((void CYFAR *)CYREG_PM_ACT_CFG0, CY_GET_XTND_REG8((void CYFAR *)CYREG_PM_ACT_CFG
 543              		.loc 1 430 0
 544 005e 234C     		ldr	r4, .L37+20
 545              	.LVL42:
 546 0060 2378     		ldrb	r3, [r4]	@ zero_extendqisi2
 547 0062 43F04003 		orr	r3, r3, #64
ARM GAS  C:\Users\urdjt\AppData\Local\Temp\ccFfW7O9.s 			page 19


 548 0066 2370     		strb	r3, [r4]
 431:Generated_Source\PSoC5/cyfitter_cfg.c **** 		CY_SET_XTND_REG8((void CYFAR *)CYREG_PM_AVAIL_CR2, CY_GET_XTND_REG8((void CYFAR *)CYREG_PM_AVAIL_
 549              		.loc 1 431 0
 550 0068 A2F58632 		sub	r2, r2, #68608
 551 006c 513A     		subs	r2, r2, #81
 552 006e 1378     		ldrb	r3, [r2]	@ zero_extendqisi2
 553 0070 43F01003 		orr	r3, r3, #16
 554 0074 1370     		strb	r3, [r2]
 555              	.LBE3:
 432:Generated_Source\PSoC5/cyfitter_cfg.c **** 	}
 433:Generated_Source\PSoC5/cyfitter_cfg.c **** 
 434:Generated_Source\PSoC5/cyfitter_cfg.c **** 
 435:Generated_Source\PSoC5/cyfitter_cfg.c **** 	/* Perform second pass device configuration. These items must be configured in specific order afte
 436:Generated_Source\PSoC5/cyfitter_cfg.c **** 	CYCONFIGCPY((void CYFAR *)(CYREG_PRT0_DM0), (const void CYFAR *)(BS_IOPINS0_0_VAL), 8u);
 556              		.loc 1 436 0
 557 0076 0822     		movs	r2, #8
 558 0078 1D49     		ldr	r1, .L37+24
 559 007a 1E48     		ldr	r0, .L37+28
 560 007c FFF7FEFF 		bl	CYCONFIGCPY
 561              	.LVL43:
 437:Generated_Source\PSoC5/cyfitter_cfg.c **** 	CYCONFIGCPY((void CYFAR *)(CYREG_PRT1_DR), (const void CYFAR *)(BS_IOPINS0_1_VAL), 10u);
 562              		.loc 1 437 0
 563 0080 0A22     		movs	r2, #10
 564 0082 1D49     		ldr	r1, .L37+32
 565 0084 1D48     		ldr	r0, .L37+36
 566 0086 FFF7FEFF 		bl	CYCONFIGCPY
 567              	.LVL44:
 438:Generated_Source\PSoC5/cyfitter_cfg.c **** 	CYCONFIGCPY((void CYFAR *)(CYREG_PRT2_DM0), (const void CYFAR *)(BS_IOPINS0_2_VAL), 8u);
 568              		.loc 1 438 0
 569 008a 0822     		movs	r2, #8
 570 008c 1C49     		ldr	r1, .L37+40
 571 008e 1D48     		ldr	r0, .L37+44
 572 0090 FFF7FEFF 		bl	CYCONFIGCPY
 573              	.LVL45:
 439:Generated_Source\PSoC5/cyfitter_cfg.c **** 	CYCONFIGCPY((void CYFAR *)(CYREG_PRT3_DM0), (const void CYFAR *)(BS_IOPINS0_3_VAL), 8u);
 574              		.loc 1 439 0
 575 0094 0822     		movs	r2, #8
 576 0096 1C49     		ldr	r1, .L37+48
 577 0098 1C48     		ldr	r0, .L37+52
 578 009a FFF7FEFF 		bl	CYCONFIGCPY
 579              	.LVL46:
 440:Generated_Source\PSoC5/cyfitter_cfg.c **** 	CYCONFIGCPY((void CYFAR *)(CYREG_PRT4_DM0), (const void CYFAR *)(BS_IOPINS0_4_VAL), 8u);
 580              		.loc 1 440 0
 581 009e 0822     		movs	r2, #8
 582 00a0 1B49     		ldr	r1, .L37+56
 583 00a2 1C48     		ldr	r0, .L37+60
 584 00a4 FFF7FEFF 		bl	CYCONFIGCPY
 585              	.LVL47:
 441:Generated_Source\PSoC5/cyfitter_cfg.c **** 	/* Switch Boost to the precision bandgap reference from its internal reference */
 442:Generated_Source\PSoC5/cyfitter_cfg.c **** 	CY_SET_REG8((void CYXDATA *)CYREG_BOOST_CR2, (CY_GET_REG8((void CYXDATA *)CYREG_BOOST_CR2) | 0x08u
 586              		.loc 1 442 0
 587 00a8 1B4A     		ldr	r2, .L37+64
 588 00aa 1378     		ldrb	r3, [r2]	@ zero_extendqisi2
 589 00ac 43F00803 		orr	r3, r3, #8
 590 00b0 1370     		strb	r3, [r2]
 443:Generated_Source\PSoC5/cyfitter_cfg.c **** 
 444:Generated_Source\PSoC5/cyfitter_cfg.c **** 	/* Set Flash Cycles based on max possible frequency in case a glitch occurs during ClockSetup(). *
ARM GAS  C:\Users\urdjt\AppData\Local\Temp\ccFfW7O9.s 			page 20


 445:Generated_Source\PSoC5/cyfitter_cfg.c **** 	CY_SET_XTND_REG8((void CYFAR *)(CYREG_CACHE_CC_CTL), (((CYDEV_INSTRUCT_CACHE_ENABLED) != 0) ? 0x61
 591              		.loc 1 445 0
 592 00b2 1A4D     		ldr	r5, .L37+68
 593 00b4 6123     		movs	r3, #97
 594 00b6 2B70     		strb	r3, [r5]
 446:Generated_Source\PSoC5/cyfitter_cfg.c **** 	/* Setup clocks based on selections from Clock DWR */
 447:Generated_Source\PSoC5/cyfitter_cfg.c **** 	ClockSetup();
 595              		.loc 1 447 0
 596 00b8 FFF7FEFF 		bl	ClockSetup
 597              	.LVL48:
 448:Generated_Source\PSoC5/cyfitter_cfg.c **** 	/* Set Flash Cycles based on newly configured 33.00MHz Bus Clock. */
 449:Generated_Source\PSoC5/cyfitter_cfg.c **** 	CY_SET_XTND_REG8((void CYFAR *)(CYREG_CACHE_CC_CTL), (((CYDEV_INSTRUCT_CACHE_ENABLED) != 0) ? 0x81
 598              		.loc 1 449 0
 599 00bc 8123     		movs	r3, #129
 600 00be 2B70     		strb	r3, [r5]
 450:Generated_Source\PSoC5/cyfitter_cfg.c **** 	CY_SET_XTND_REG8((void CYFAR *)(CYREG_PANTHER_WAITPIPE), 0x01u);
 601              		.loc 1 450 0
 602 00c0 0122     		movs	r2, #1
 603 00c2 174B     		ldr	r3, .L37+72
 604 00c4 1A70     		strb	r2, [r3]
 451:Generated_Source\PSoC5/cyfitter_cfg.c **** 
 452:Generated_Source\PSoC5/cyfitter_cfg.c **** 	/* Perform basic analog initialization to defaults */
 453:Generated_Source\PSoC5/cyfitter_cfg.c **** 	AnalogSetDefault();
 605              		.loc 1 453 0
 606 00c6 FFF7FEFF 		bl	AnalogSetDefault
 607              	.LVL49:
 454:Generated_Source\PSoC5/cyfitter_cfg.c **** 
 455:Generated_Source\PSoC5/cyfitter_cfg.c **** 	/* Configure alternate active mode */
 456:Generated_Source\PSoC5/cyfitter_cfg.c **** 	CYCONFIGCPY((void CYFAR *)CYDEV_PM_STBY_BASE, (const void CYFAR *)CYDEV_PM_ACT_BASE, 14u);
 608              		.loc 1 456 0
 609 00ca 0E22     		movs	r2, #14
 610 00cc 2146     		mov	r1, r4
 611 00ce 1548     		ldr	r0, .L37+76
 612 00d0 FFF7FEFF 		bl	CYCONFIGCPY
 613              	.LVL50:
 614 00d4 38BD     		pop	{r3, r4, r5, pc}
 615              	.L38:
 616 00d6 00BF     		.align	2
 617              	.L37:
 618 00d8 E8460040 		.word	1073759976
 619 00dc 00000000 		.word	.LANCHOR0
 620 00e0 64000048 		.word	1207959652
 621 00e4 4A580040 		.word	1073764426
 622 00e8 03500140 		.word	1073827843
 623 00ec A0430040 		.word	1073759136
 624 00f0 C0030048 		.word	1207960512
 625 00f4 02510040 		.word	1073762562
 626 00f8 C8030048 		.word	1207960520
 627 00fc 10510040 		.word	1073762576
 628 0100 D4030048 		.word	1207960532
 629 0104 22510040 		.word	1073762594
 630 0108 DC030048 		.word	1207960540
 631 010c 32510040 		.word	1073762610
 632 0110 E4030048 		.word	1207960548
 633 0114 42510040 		.word	1073762626
 634 0118 22430040 		.word	1073759010
 635 011c 00480040 		.word	1073760256
ARM GAS  C:\Users\urdjt\AppData\Local\Temp\ccFfW7O9.s 			page 21


 636 0120 04000840 		.word	1074266116
 637 0124 B0430040 		.word	1073759152
 638              		.cfi_endproc
 639              	.LFE8:
 640              		.size	cyfitter_cfg, .-cyfitter_cfg
 641              		.section	.rodata
 642              		.align	2
 643              		.set	.LANCHOR0,. + 0
 644              		.type	cfg_memset_list.5016, %object
 645              		.size	cfg_memset_list.5016, 48
 646              	cfg_memset_list.5016:
 647 0000 50510040 		.word	1073762640
 648 0004 2000     		.short	32
 649 0006 C0510040 		.4byte	1073762752
 650 000a 1000     		.short	16
 651 000c F0510040 		.word	1073762800
 652 0010 1000     		.short	16
 653 0012 00000140 		.4byte	1073807360
 654 0016 0010     		.short	4096
 655 0018 00140140 		.word	1073812480
 656 001c 0008     		.short	2048
 657 001e 00400140 		.4byte	1073823744
 658 0022 000A     		.short	2560
 659 0024 004C0140 		.word	1073826816
 660 0028 0002     		.short	512
 661 002a 00500140 		.4byte	1073827840
 662 002e 2000     		.short	32
 663              		.text
 664              	.Letext0:
 665              		.file 2 "c:\\program files (x86)\\cypress\\psoc creator\\4.2\\psoc creator\\import\\gnu\\arm\\5.4.
 666              		.file 3 "Generated_Source\\PSoC5\\cytypes.h"
 667              		.file 4 "Generated_Source\\PSoC5\\CyLib.h"