ARM GAS  C:\Users\urdjt\AppData\Local\Temp\ccRtXUZb.s 			page 1


   1              		.syntax unified
   2              		.cpu cortex-m3
   3              		.fpu softvfp
   4              		.eabi_attribute 20, 1
   5              		.eabi_attribute 21, 1
   6              		.eabi_attribute 23, 3
   7              		.eabi_attribute 24, 1
   8              		.eabi_attribute 25, 1
   9              		.eabi_attribute 26, 1
  10              		.eabi_attribute 30, 1
  11              		.eabi_attribute 34, 1
  12              		.eabi_attribute 18, 4
  13              		.thumb
  14              		.syntax unified
  15              		.file	"main.c"
  16              		.text
  17              	.Ltext0:
  18              		.cfi_sections	.debug_frame
  19              		.global	__aeabi_ui2d
  20              		.global	__aeabi_dmul
  21              		.global	__aeabi_d2uiz
  22              		.section	.text.main,"ax",%progbits
  23              		.align	2
  24              		.global	main
  25              		.thumb
  26              		.thumb_func
  27              		.type	main, %function
  28              	main:
  29              	.LFB64:
  30              		.file 1 "main.c"
   1:main.c        **** /* ========================================
   2:main.c        ****  *
   3:main.c        ****  * Copyright YOUR COMPANY, THE YEAR
   4:main.c        ****  * All Rights Reserved
   5:main.c        ****  * UNPUBLISHED, LICENSED SOFTWARE.
   6:main.c        ****  *
   7:main.c        ****  * CONFIDENTIAL AND PROPRIETARY INFORMATION
   8:main.c        ****  * WHICH IS THE PROPERTY OF your company.
   9:main.c        ****  *
  10:main.c        ****  * ========================================
  11:main.c        **** */
  12:main.c        **** #include "project.h"
  13:main.c        **** #include "stdio.h"
  14:main.c        **** 
  15:main.c        **** int16 adcResult = 0;
  16:main.c        **** int16 adcResultAlarm = 0;
  17:main.c        **** unsigned long int counterResult = 0u;
  18:main.c        **** char toSend[16];
  19:main.c        **** char displayTime[30];
  20:main.c        **** char displayAlarmNumber[30];
  21:main.c        **** unsigned int alarmEin = 0u;
  22:main.c        **** unsigned int numberOfAlarms = 0u;
  23:main.c        **** unsigned int alarmDurationTimes [100];
  24:main.c        **** unsigned int time = 0;
  25:main.c        **** 
  26:main.c        **** int main(void)
  27:main.c        **** {
ARM GAS  C:\Users\urdjt\AppData\Local\Temp\ccRtXUZb.s 			page 2


  31              		.loc 1 27 0
  32              		.cfi_startproc
  33              		@ args = 0, pretend = 0, frame = 0
  34              		@ frame_needed = 0, uses_anonymous_args = 0
  35 0000 F8B5     		push	{r3, r4, r5, r6, r7, lr}
  36              		.cfi_def_cfa_offset 24
  37              		.cfi_offset 3, -24
  38              		.cfi_offset 4, -20
  39              		.cfi_offset 5, -16
  40              		.cfi_offset 6, -12
  41              		.cfi_offset 7, -8
  42              		.cfi_offset 14, -4
  28:main.c        ****     CyGlobalIntEnable; /* Enable global interrupts. */
  43              		.loc 1 28 0
  44              		.syntax unified
  45              	@ 28 "main.c" 1
  46 0002 62B6     		CPSIE   i
  47              	@ 0 "" 2
  29:main.c        **** 
  30:main.c        ****     /* Place your initialization/startup code here (e.g. MyInst_Start()) */
  31:main.c        ****     VDAC8_1_Start();
  48              		.loc 1 31 0
  49              		.thumb
  50              		.syntax unified
  51 0004 FFF7FEFF 		bl	VDAC8_1_Start
  52              	.LVL0:
  32:main.c        ****     PGA_1_Start();
  53              		.loc 1 32 0
  54 0008 FFF7FEFF 		bl	PGA_1_Start
  55              	.LVL1:
  33:main.c        ****     ADC_SAR_1_Start();
  56              		.loc 1 33 0
  57 000c FFF7FEFF 		bl	ADC_SAR_1_Start
  58              	.LVL2:
  34:main.c        ****     ADC_SAR_1_StartConvert();
  59              		.loc 1 34 0
  60 0010 FFF7FEFF 		bl	ADC_SAR_1_StartConvert
  61              	.LVL3:
  35:main.c        ****     UART_1_Start();
  62              		.loc 1 35 0
  63 0014 FFF7FEFF 		bl	UART_1_Start
  64              	.LVL4:
  36:main.c        ****     LCD_1_Start();
  65              		.loc 1 36 0
  66 0018 FFF7FEFF 		bl	LCD_1_Start
  67              	.LVL5:
  37:main.c        ****     //Clock_1_Start();
  38:main.c        ****     LCD_1_ClearDisplay();
  68              		.loc 1 38 0
  69 001c 0120     		movs	r0, #1
  70 001e FFF7FEFF 		bl	LCD_1_WriteControl
  71              	.LVL6:
  39:main.c        ****     
  40:main.c        ****     int i;
  41:main.c        ****     for(i = 0; i < 100; i++)
  72              		.loc 1 41 0
  73 0022 0023     		movs	r3, #0
ARM GAS  C:\Users\urdjt\AppData\Local\Temp\ccRtXUZb.s 			page 3


  74 0024 04E0     		b	.L2
  75              	.LVL7:
  76              	.L3:
  42:main.c        ****     {
  43:main.c        ****         alarmDurationTimes[i] = 0; //Alle Elemente des Arrays werden mit dem Wert 0 initializiert
  77              		.loc 1 43 0 discriminator 3
  78 0026 0021     		movs	r1, #0
  79 0028 5D4A     		ldr	r2, .L9+8
  80 002a 42F82310 		str	r1, [r2, r3, lsl #2]
  41:main.c        ****     {
  81              		.loc 1 41 0 discriminator 3
  82 002e 0133     		adds	r3, r3, #1
  83              	.LVL8:
  84              	.L2:
  41:main.c        ****     {
  85              		.loc 1 41 0 is_stmt 0 discriminator 1
  86 0030 632B     		cmp	r3, #99
  87 0032 F8DD     		ble	.L3
  44:main.c        ****     }
  45:main.c        ****     
  46:main.c        ****     sprintf(displayAlarmNumber, "Total alarms: %u", numberOfAlarms); //Anzahl von Druckabf√§llen wi
  88              		.loc 1 46 0 is_stmt 1
  89 0034 5B4C     		ldr	r4, .L9+12
  90 0036 5C4D     		ldr	r5, .L9+16
  91 0038 2268     		ldr	r2, [r4]
  92 003a 5C49     		ldr	r1, .L9+20
  93 003c 2846     		mov	r0, r5
  94 003e FFF7FEFF 		bl	sprintf
  95              	.LVL9:
  47:main.c        ****     LCD_1_Position(0,0);
  96              		.loc 1 47 0
  97 0042 0021     		movs	r1, #0
  98 0044 0846     		mov	r0, r1
  99 0046 FFF7FEFF 		bl	LCD_1_Position
 100              	.LVL10:
  48:main.c        ****     LCD_1_PrintString(displayAlarmNumber);
 101              		.loc 1 48 0
 102 004a 2846     		mov	r0, r5
 103 004c FFF7FEFF 		bl	LCD_1_PrintString
 104              	.LVL11:
  49:main.c        ****         
  50:main.c        ****     sprintf(displayTime, "last alarm: %u s", alarmDurationTimes[numberOfAlarms]); //Dauer der letzt
 105              		.loc 1 50 0
 106 0050 2268     		ldr	r2, [r4]
 107 0052 574C     		ldr	r4, .L9+24
 108 0054 524B     		ldr	r3, .L9+8
 109 0056 53F82220 		ldr	r2, [r3, r2, lsl #2]
 110 005a 5649     		ldr	r1, .L9+28
 111 005c 2046     		mov	r0, r4
 112 005e FFF7FEFF 		bl	sprintf
 113              	.LVL12:
  51:main.c        ****     LCD_1_Position(1,0);
 114              		.loc 1 51 0
 115 0062 0021     		movs	r1, #0
 116 0064 0120     		movs	r0, #1
 117 0066 FFF7FEFF 		bl	LCD_1_Position
 118              	.LVL13:
ARM GAS  C:\Users\urdjt\AppData\Local\Temp\ccRtXUZb.s 			page 4


  52:main.c        ****     LCD_1_PrintString(displayTime);
 119              		.loc 1 52 0
 120 006a 2046     		mov	r0, r4
 121 006c FFF7FEFF 		bl	LCD_1_PrintString
 122              	.LVL14:
 123              	.L4:
  53:main.c        ****     
  54:main.c        ****     while(1)
  55:main.c        ****     {
  56:main.c        ****         /*
  57:main.c        ****           ADW Wert wird nach einer Umwandlung gespeichert
  58:main.c        ****           und den Steuercode wird hinzugef√ºgt.
  59:main.c        ****           Danach werden die Daten in einem String umgewandelt
  60:main.c        ****           und gesendet.
  61:main.c        ****         */
  62:main.c        ****         if (ADC_SAR_1_IsEndConversion(ADC_SAR_1_WAIT_FOR_RESULT))
 124              		.loc 1 62 0
 125 0070 0020     		movs	r0, #0
 126 0072 FFF7FEFF 		bl	ADC_SAR_1_IsEndConversion
 127              	.LVL15:
 128 0076 A0B1     		cbz	r0, .L5
  63:main.c        ****         {
  64:main.c        ****             adcResult = ADC_SAR_1_GetResult16();
 129              		.loc 1 64 0
 130 0078 FFF7FEFF 		bl	ADC_SAR_1_GetResult16
 131              	.LVL16:
 132 007c 494B     		ldr	r3, .L9+12
  65:main.c        ****             adcResultAlarm = adcResult;
 133              		.loc 1 65 0
 134 007e D880     		strh	r0, [r3, #6]	@ movhi
  66:main.c        ****             adcResult &= ~(0xF000);
 135              		.loc 1 66 0
 136 0080 C0F30B02 		ubfx	r2, r0, #0, #12
  67:main.c        ****             adcResult |= 0x3000;
 137              		.loc 1 67 0
 138 0084 42F44052 		orr	r2, r2, #12288
 139 0088 9A80     		strh	r2, [r3, #4]	@ movhi
  68:main.c        ****             
  69:main.c        ****             sprintf(toSend, "%x\r\n", adcResult);
 140              		.loc 1 69 0
 141 008a 4B4C     		ldr	r4, .L9+32
 142 008c 4B49     		ldr	r1, .L9+36
 143 008e 2046     		mov	r0, r4
 144 0090 FFF7FEFF 		bl	sprintf
 145              	.LVL17:
  70:main.c        ****             UART_1_PutString(toSend);
 146              		.loc 1 70 0
 147 0094 2046     		mov	r0, r4
 148 0096 FFF7FEFF 		bl	UART_1_PutString
 149              	.LVL18:
  71:main.c        ****             CyDelay(300);
 150              		.loc 1 71 0
 151 009a 4FF49670 		mov	r0, #300
 152 009e FFF7FEFF 		bl	CyDelay
 153              	.LVL19:
 154              	.L5:
  72:main.c        ****         }
ARM GAS  C:\Users\urdjt\AppData\Local\Temp\ccRtXUZb.s 			page 5


  73:main.c        ****         /*
  74:main.c        ****           Fuer Luftdruckwerte unterhalb 900hPa bzw
  75:main.c        ****           wird ein Alarm aktiviert
  76:main.c        ****         */
  77:main.c        ****         if (adcResultAlarm < 2596 && alarmEin == 0)        //wenn vorher kein Alarmprotokolla aktiv
 155              		.loc 1 77 0
 156 00a2 404B     		ldr	r3, .L9+12
 157 00a4 B3F90630 		ldrsh	r3, [r3, #6]
 158 00a8 40F62322 		movw	r2, #2595
 159 00ac 9342     		cmp	r3, r2
 160 00ae 1CDC     		bgt	.L6
 161              		.loc 1 77 0 is_stmt 0 discriminator 1
 162 00b0 3C4A     		ldr	r2, .L9+12
 163 00b2 9268     		ldr	r2, [r2, #8]
 164 00b4 CAB9     		cbnz	r2, .L6
  78:main.c        ****         {
  79:main.c        ****             alarmEin = 1;                           //Clocks und Counter starten. LED blinkt.
 165              		.loc 1 79 0 is_stmt 1
 166 00b6 3B4C     		ldr	r4, .L9+12
 167 00b8 0125     		movs	r5, #1
 168 00ba A560     		str	r5, [r4, #8]
  80:main.c        ****                        
  81:main.c        ****             //Clock_1_Start();
  82:main.c        ****             Clock_2_Start();
 169              		.loc 1 82 0
 170 00bc FFF7FEFF 		bl	Clock_2_Start
 171              	.LVL20:
  83:main.c        ****             PWM_1_Start();
 172              		.loc 1 83 0
 173 00c0 FFF7FEFF 		bl	PWM_1_Start
 174              	.LVL21:
  84:main.c        ****             Counter_1_WriteCounter(0);
 175              		.loc 1 84 0
 176 00c4 0020     		movs	r0, #0
 177 00c6 FFF7FEFF 		bl	Counter_1_WriteCounter
 178              	.LVL22:
  85:main.c        ****             Counter_1_Start();
 179              		.loc 1 85 0
 180 00ca FFF7FEFF 		bl	Counter_1_Start
 181              	.LVL23:
  86:main.c        ****             //Counter_1_WriteCounter(0);
  87:main.c        ****             
  88:main.c        ****             LCD_1_ClearDisplay();                    //Der Display zeigt eine Warnung
 182              		.loc 1 88 0
 183 00ce 2846     		mov	r0, r5
 184 00d0 FFF7FEFF 		bl	LCD_1_WriteControl
 185              	.LVL24:
  89:main.c        ****             LCD_1_Position(0,0);
 186              		.loc 1 89 0
 187 00d4 0021     		movs	r1, #0
 188 00d6 0846     		mov	r0, r1
 189 00d8 FFF7FEFF 		bl	LCD_1_Position
 190              	.LVL25:
  90:main.c        ****             LCD_1_PrintString("Emergency!");
 191              		.loc 1 90 0
 192 00dc 3848     		ldr	r0, .L9+40
 193 00de FFF7FEFF 		bl	LCD_1_PrintString
ARM GAS  C:\Users\urdjt\AppData\Local\Temp\ccRtXUZb.s 			page 6


 194              	.LVL26:
  91:main.c        ****             
  92:main.c        ****             numberOfAlarms++;                       //Der Anzahl von Druckabfaellen wird inkrementi
 195              		.loc 1 92 0
 196 00e2 2368     		ldr	r3, [r4]
 197 00e4 2B44     		add	r3, r3, r5
 198 00e6 2360     		str	r3, [r4]
 199 00e8 C2E7     		b	.L4
 200              	.L6:
  93:main.c        ****         } else if (alarmEin == 1 && adcResultAlarm >= 2596)  //wenn die Alarm aktiv war und der Dru
 201              		.loc 1 93 0
 202 00ea 2E4A     		ldr	r2, .L9+12
 203 00ec 9268     		ldr	r2, [r2, #8]
 204 00ee 012A     		cmp	r2, #1
 205 00f0 BED1     		bne	.L4
 206              		.loc 1 93 0 is_stmt 0 discriminator 1
 207 00f2 40F62322 		movw	r2, #2595
 208 00f6 9342     		cmp	r3, r2
 209 00f8 BADD     		ble	.L4
  94:main.c        ****         {
  95:main.c        ****             counterResult = Counter_1_ReadCounter();//Anzahl der Flanken wird ausgelesen.
 210              		.loc 1 95 0 is_stmt 1
 211 00fa FFF7FEFF 		bl	Counter_1_ReadCounter
 212              	.LVL27:
 213 00fe 294D     		ldr	r5, .L9+12
 214 0100 E860     		str	r0, [r5, #12]
  96:main.c        ****             alarmEin = 0;
 215              		.loc 1 96 0
 216 0102 0024     		movs	r4, #0
 217 0104 AC60     		str	r4, [r5, #8]
  97:main.c        ****             
  98:main.c        ****             PWM_1_Stop();
 218              		.loc 1 98 0
 219 0106 FFF7FEFF 		bl	PWM_1_Stop
 220              	.LVL28:
  99:main.c        ****             CyDelay(10);
 221              		.loc 1 99 0
 222 010a 0A20     		movs	r0, #10
 223 010c FFF7FEFF 		bl	CyDelay
 224              	.LVL29:
 100:main.c        ****             Counter_1_Stop(); 
 225              		.loc 1 100 0
 226 0110 FFF7FEFF 		bl	Counter_1_Stop
 227              	.LVL30:
 101:main.c        ****             Clock_2_Stop();                         //Der Counter und der 2. Clock werden getoppt  
 228              		.loc 1 101 0
 229 0114 FFF7FEFF 		bl	Clock_2_Stop
 230              	.LVL31:
 102:main.c        **** 
 103:main.c        ****             time = counterResult * 0.2;             //Signal hat eine Frequenz von 5Hz --> eine Fla
 231              		.loc 1 103 0
 232 0118 E868     		ldr	r0, [r5, #12]
 233 011a FFF7FEFF 		bl	__aeabi_ui2d
 234              	.LVL32:
 235 011e 1EA3     		adr	r3, .L9
 236 0120 D3E90023 		ldrd	r2, [r3]
 237 0124 FFF7FEFF 		bl	__aeabi_dmul
ARM GAS  C:\Users\urdjt\AppData\Local\Temp\ccRtXUZb.s 			page 7


 238              	.LVL33:
 239 0128 FFF7FEFF 		bl	__aeabi_d2uiz
 240              	.LVL34:
 241 012c 2861     		str	r0, [r5, #16]
 104:main.c        ****             alarmDurationTimes [numberOfAlarms] = time;//Dauer wird in dem zugehoerigen Position im
 242              		.loc 1 104 0
 243 012e 2B68     		ldr	r3, [r5]
 244 0130 1B4E     		ldr	r6, .L9+8
 245 0132 46F82300 		str	r0, [r6, r3, lsl #2]
 105:main.c        ****             
 106:main.c        ****             LED_1_Write(0u);
 246              		.loc 1 106 0
 247 0136 2046     		mov	r0, r4
 248 0138 FFF7FEFF 		bl	LED_1_Write
 249              	.LVL35:
 107:main.c        ****             LCD_1_ClearDisplay();                    //Warnung wird geloescht
 250              		.loc 1 107 0
 251 013c 0120     		movs	r0, #1
 252 013e FFF7FEFF 		bl	LCD_1_WriteControl
 253              	.LVL36:
 108:main.c        ****             LCD_1_Position(0,0);
 254              		.loc 1 108 0
 255 0142 2146     		mov	r1, r4
 256 0144 2046     		mov	r0, r4
 257 0146 FFF7FEFF 		bl	LCD_1_Position
 258              	.LVL37:
 109:main.c        ****             LCD_1_PrintString("Risk Fixed");        //Neue Melgung wenn Gefahr behoben wurde
 259              		.loc 1 109 0
 260 014a 1E48     		ldr	r0, .L9+44
 261 014c FFF7FEFF 		bl	LCD_1_PrintString
 262              	.LVL38:
 110:main.c        ****             CyDelay(2000);                          //Meldung wird nur fuer 2 Sekunden angezeigt
 263              		.loc 1 110 0
 264 0150 4FF4FA60 		mov	r0, #2000
 265 0154 FFF7FEFF 		bl	CyDelay
 266              	.LVL39:
 111:main.c        ****             LCD_1_ClearDisplay();
 267              		.loc 1 111 0
 268 0158 0120     		movs	r0, #1
 269 015a FFF7FEFF 		bl	LCD_1_WriteControl
 270              	.LVL40:
 112:main.c        ****             
 113:main.c        ****             sprintf(displayAlarmNumber, "Total alarms: %u", numberOfAlarms); //Anzahl von Druckabf√
 271              		.loc 1 113 0
 272 015e 124F     		ldr	r7, .L9+16
 273 0160 2A68     		ldr	r2, [r5]
 274 0162 1249     		ldr	r1, .L9+20
 275 0164 3846     		mov	r0, r7
 276 0166 FFF7FEFF 		bl	sprintf
 277              	.LVL41:
 114:main.c        ****             LCD_1_Position(0,0);
 278              		.loc 1 114 0
 279 016a 2146     		mov	r1, r4
 280 016c 2046     		mov	r0, r4
 281 016e FFF7FEFF 		bl	LCD_1_Position
 282              	.LVL42:
 115:main.c        ****             LCD_1_PrintString(displayAlarmNumber);
ARM GAS  C:\Users\urdjt\AppData\Local\Temp\ccRtXUZb.s 			page 8


 283              		.loc 1 115 0
 284 0172 3846     		mov	r0, r7
 285 0174 FFF7FEFF 		bl	LCD_1_PrintString
 286              	.LVL43:
 116:main.c        ****         
 117:main.c        ****             sprintf(displayTime, "last alarm: %u s", alarmDurationTimes[numberOfAlarms]); //Dauer d
 287              		.loc 1 117 0
 288 0178 2B68     		ldr	r3, [r5]
 289 017a 0D4D     		ldr	r5, .L9+24
 290 017c 56F82320 		ldr	r2, [r6, r3, lsl #2]
 291 0180 0C49     		ldr	r1, .L9+28
 292 0182 2846     		mov	r0, r5
 293 0184 FFF7FEFF 		bl	sprintf
 294              	.LVL44:
 118:main.c        ****             LCD_1_Position(1,0);
 295              		.loc 1 118 0
 296 0188 2146     		mov	r1, r4
 297 018a 0120     		movs	r0, #1
 298 018c FFF7FEFF 		bl	LCD_1_Position
 299              	.LVL45:
 119:main.c        ****             LCD_1_PrintString(displayTime);
 300              		.loc 1 119 0
 301 0190 2846     		mov	r0, r5
 302 0192 FFF7FEFF 		bl	LCD_1_PrintString
 303              	.LVL46:
 304 0196 6BE7     		b	.L4
 305              	.L10:
 306              		.align	3
 307              	.L9:
 308 0198 9A999999 		.word	-1717986918
 309 019c 9999C93F 		.word	1070176665
 310 01a0 00000000 		.word	alarmDurationTimes
 311 01a4 00000000 		.word	.LANCHOR0
 312 01a8 00000000 		.word	displayAlarmNumber
 313 01ac 00000000 		.word	.LC0
 314 01b0 00000000 		.word	displayTime
 315 01b4 14000000 		.word	.LC1
 316 01b8 00000000 		.word	toSend
 317 01bc 28000000 		.word	.LC2
 318 01c0 30000000 		.word	.LC3
 319 01c4 3C000000 		.word	.LC4
 320              		.cfi_endproc
 321              	.LFE64:
 322              		.size	main, .-main
 323              		.global	time
 324              		.comm	alarmDurationTimes,400,4
 325              		.global	numberOfAlarms
 326              		.global	alarmEin
 327              		.comm	displayAlarmNumber,30,4
 328              		.comm	displayTime,30,4
 329              		.comm	toSend,16,4
 330              		.global	counterResult
 331              		.global	adcResultAlarm
 332              		.global	adcResult
 333              		.section	.rodata.str1.4,"aMS",%progbits,1
 334              		.align	2
 335              	.LC0:
ARM GAS  C:\Users\urdjt\AppData\Local\Temp\ccRtXUZb.s 			page 9


 336 0000 546F7461 		.ascii	"Total alarms: %u\000"
 336      6C20616C 
 336      61726D73 
 336      3A202575 
 336      00
 337 0011 000000   		.space	3
 338              	.LC1:
 339 0014 6C617374 		.ascii	"last alarm: %u s\000"
 339      20616C61 
 339      726D3A20 
 339      25752073 
 339      00
 340 0025 000000   		.space	3
 341              	.LC2:
 342 0028 25780D0A 		.ascii	"%x\015\012\000"
 342      00
 343 002d 000000   		.space	3
 344              	.LC3:
 345 0030 456D6572 		.ascii	"Emergency!\000"
 345      67656E63 
 345      792100
 346 003b 00       		.space	1
 347              	.LC4:
 348 003c 5269736B 		.ascii	"Risk Fixed\000"
 348      20466978 
 348      656400
 349              		.bss
 350              		.align	2
 351              		.set	.LANCHOR0,. + 0
 352              		.type	numberOfAlarms, %object
 353              		.size	numberOfAlarms, 4
 354              	numberOfAlarms:
 355 0000 00000000 		.space	4
 356              		.type	adcResult, %object
 357              		.size	adcResult, 2
 358              	adcResult:
 359 0004 0000     		.space	2
 360              		.type	adcResultAlarm, %object
 361              		.size	adcResultAlarm, 2
 362              	adcResultAlarm:
 363 0006 0000     		.space	2
 364              		.type	alarmEin, %object
 365              		.size	alarmEin, 4
 366              	alarmEin:
 367 0008 00000000 		.space	4
 368              		.type	counterResult, %object
 369              		.size	counterResult, 4
 370              	counterResult:
 371 000c 00000000 		.space	4
 372              		.type	time, %object
 373              		.size	time, 4
 374              	time:
 375 0010 00000000 		.space	4
 376              		.text
 377              	.Letext0:
 378              		.file 2 "c:\\program files (x86)\\cypress\\psoc creator\\4.2\\psoc creator\\import\\gnu\\arm\\5.4.
 379              		.file 3 "c:\\program files (x86)\\cypress\\psoc creator\\4.2\\psoc creator\\import\\gnu\\arm\\5.4.
ARM GAS  C:\Users\urdjt\AppData\Local\Temp\ccRtXUZb.s 			page 10


 380              		.file 4 "Generated_Source\\PSoC5/cytypes.h"
 381              		.file 5 "Generated_Source\\PSoC5/core_cm3.h"
 382              		.file 6 "Generated_Source\\PSoC5/VDAC8_1.h"
 383              		.file 7 "Generated_Source\\PSoC5/PGA_1.h"
 384              		.file 8 "Generated_Source\\PSoC5/ADC_SAR_1.h"
 385              		.file 9 "Generated_Source\\PSoC5/UART_1.h"
 386              		.file 10 "Generated_Source\\PSoC5/LCD_1.h"
 387              		.file 11 "c:\\program files (x86)\\cypress\\psoc creator\\4.2\\psoc creator\\import\\gnu\\arm\\5.4
 388              		.file 12 "Generated_Source\\PSoC5/CyLib.h"
 389              		.file 13 "Generated_Source\\PSoC5/Clock_2.h"
 390              		.file 14 "Generated_Source\\PSoC5/PWM_1.h"
 391              		.file 15 "Generated_Source\\PSoC5/Counter_1.h"
 392              		.file 16 "Generated_Source\\PSoC5/LED_1.h"