ARM GAS  C:\Users\urdjt\AppData\Local\Temp\cc9qcU8N.s 			page 1


   1              		.syntax unified
   2              		.cpu cortex-m3
   3              		.fpu softvfp
   4              		.eabi_attribute 20, 1
   5              		.eabi_attribute 21, 1
   6              		.eabi_attribute 23, 3
   7              		.eabi_attribute 24, 1
   8              		.eabi_attribute 25, 1
   9              		.eabi_attribute 26, 1
  10              		.eabi_attribute 30, 1
  11              		.eabi_attribute 34, 1
  12              		.eabi_attribute 18, 4
  13              		.thumb
  14              		.syntax unified
  15              		.file	"main.c"
  16              		.text
  17              	.Ltext0:
  18              		.cfi_sections	.debug_frame
  19              		.section	.text.main,"ax",%progbits
  20              		.align	2
  21              		.global	main
  22              		.thumb
  23              		.thumb_func
  24              		.type	main, %function
  25              	main:
  26              	.LFB63:
  27              		.file 1 "main.c"
   1:main.c        **** /* ========================================
   2:main.c        ****  *
   3:main.c        ****  * Copyright YOUR COMPANY, THE YEAR
   4:main.c        ****  * All Rights Reserved
   5:main.c        ****  * UNPUBLISHED, LICENSED SOFTWARE.
   6:main.c        ****  *
   7:main.c        ****  * CONFIDENTIAL AND PROPRIETARY INFORMATION
   8:main.c        ****  * WHICH IS THE PROPERTY OF your company.
   9:main.c        ****  *
  10:main.c        ****  * ========================================
  11:main.c        **** */
  12:main.c        **** #include "project.h"
  13:main.c        **** 
  14:main.c        **** int main(void)
  15:main.c        **** {
  28              		.loc 1 15 0
  29              		.cfi_startproc
  30              		@ args = 0, pretend = 0, frame = 0
  31              		@ frame_needed = 0, uses_anonymous_args = 0
  32 0000 38B5     		push	{r3, r4, r5, lr}
  33              		.cfi_def_cfa_offset 16
  34              		.cfi_offset 3, -16
  35              		.cfi_offset 4, -12
  36              		.cfi_offset 5, -8
  37              		.cfi_offset 14, -4
  16:main.c        ****     CyGlobalIntEnable; /* Enable global interrupts. */
  38              		.loc 1 16 0
  39              		.syntax unified
  40              	@ 16 "main.c" 1
  41 0002 62B6     		CPSIE   i
ARM GAS  C:\Users\urdjt\AppData\Local\Temp\cc9qcU8N.s 			page 2


  42              	@ 0 "" 2
  17:main.c        **** 
  18:main.c        ****     /* Place your initialization/startup code here (e.g. MyInst_Start()) */
  19:main.c        ****     LCD_1_Start();
  43              		.loc 1 19 0
  44              		.thumb
  45              		.syntax unified
  46 0004 FFF7FEFF 		bl	LCD_1_Start
  47              	.LVL0:
  20:main.c        ****   
  21:main.c        ****     int i=0, whiteSpace = 0;
  48              		.loc 1 21 0
  49 0008 0024     		movs	r4, #0
  50 000a 2546     		mov	r5, r4
  51 000c 14E0     		b	.L2
  52              	.LVL1:
  53              	.L3:
  22:main.c        ****     while(1)
  23:main.c        ****     {
  24:main.c        ****         for(i; i<17 ; i++)
  25:main.c        ****         {
  26:main.c        ****             for(whiteSpace; whiteSpace < i; whiteSpace++)
  27:main.c        ****             {
  28:main.c        ****                 LCD_1_Position(0,whiteSpace);
  54              		.loc 1 28 0 discriminator 2
  55 000e E1B2     		uxtb	r1, r4
  56 0010 0020     		movs	r0, #0
  57 0012 FFF7FEFF 		bl	LCD_1_Position
  58              	.LVL2:
  29:main.c        ****                 LCD_1_PutChar(' ');
  59              		.loc 1 29 0 discriminator 2
  60 0016 2020     		movs	r0, #32
  61 0018 FFF7FEFF 		bl	LCD_1_PutChar
  62              	.LVL3:
  26:main.c        ****             {
  63              		.loc 1 26 0 discriminator 2
  64 001c 0134     		adds	r4, r4, #1
  65              	.LVL4:
  66              	.L4:
  26:main.c        ****             {
  67              		.loc 1 26 0 is_stmt 0 discriminator 1
  68 001e A542     		cmp	r5, r4
  69 0020 F5DC     		bgt	.L3
  30:main.c        ****             }
  31:main.c        ****             LCD_1_Position(0,i);
  70              		.loc 1 31 0 is_stmt 1
  71 0022 E9B2     		uxtb	r1, r5
  72 0024 0020     		movs	r0, #0
  73 0026 FFF7FEFF 		bl	LCD_1_Position
  74              	.LVL5:
  32:main.c        ****             LCD_1_PrintString("Hello World!");
  75              		.loc 1 32 0
  76 002a 0B48     		ldr	r0, .L9
  77 002c FFF7FEFF 		bl	LCD_1_PrintString
  78              	.LVL6:
  33:main.c        ****             
  34:main.c        ****             CyDelay(250);
ARM GAS  C:\Users\urdjt\AppData\Local\Temp\cc9qcU8N.s 			page 3


  79              		.loc 1 34 0
  80 0030 FA20     		movs	r0, #250
  81 0032 FFF7FEFF 		bl	CyDelay
  82              	.LVL7:
  24:main.c        ****         {
  83              		.loc 1 24 0
  84 0036 0135     		adds	r5, r5, #1
  85              	.LVL8:
  86              	.L2:
  24:main.c        ****         {
  87              		.loc 1 24 0 is_stmt 0 discriminator 1
  88 0038 102D     		cmp	r5, #16
  89 003a F0DD     		ble	.L4
  90 003c 07E0     		b	.L5
  91              	.L6:
  35:main.c        ****         }
  36:main.c        ****         for(whiteSpace; whiteSpace < 17 ; whiteSpace++)
  37:main.c        ****         {
  38:main.c        ****             LCD_1_Position(0,whiteSpace);
  92              		.loc 1 38 0 is_stmt 1 discriminator 2
  93 003e E1B2     		uxtb	r1, r4
  94 0040 0020     		movs	r0, #0
  95 0042 FFF7FEFF 		bl	LCD_1_Position
  96              	.LVL9:
  39:main.c        ****             LCD_1_PutChar(' ');
  97              		.loc 1 39 0 discriminator 2
  98 0046 2020     		movs	r0, #32
  99 0048 FFF7FEFF 		bl	LCD_1_PutChar
 100              	.LVL10:
  36:main.c        ****         {
 101              		.loc 1 36 0 discriminator 2
 102 004c 0134     		adds	r4, r4, #1
 103              	.LVL11:
 104              	.L5:
  36:main.c        ****         {
 105              		.loc 1 36 0 is_stmt 0 discriminator 1
 106 004e 102C     		cmp	r4, #16
 107 0050 F5DD     		ble	.L6
  40:main.c        ****         }
  41:main.c        ****         i = 0;
  42:main.c        ****         whiteSpace = 0;
 108              		.loc 1 42 0 is_stmt 1
 109 0052 0024     		movs	r4, #0
 110              	.LVL12:
  41:main.c        ****         whiteSpace = 0;
 111              		.loc 1 41 0
 112 0054 2546     		mov	r5, r4
 113              	.LVL13:
 114 0056 EFE7     		b	.L2
 115              	.L10:
 116              		.align	2
 117              	.L9:
 118 0058 00000000 		.word	.LC0
 119              		.cfi_endproc
 120              	.LFE63:
 121              		.size	main, .-main
 122              		.section	.rodata.str1.4,"aMS",%progbits,1
ARM GAS  C:\Users\urdjt\AppData\Local\Temp\cc9qcU8N.s 			page 4


 123              		.align	2
 124              	.LC0:
 125 0000 48656C6C 		.ascii	"Hello World!\000"
 125      6F20576F 
 125      726C6421 
 125      00
 126              		.text
 127              	.Letext0:
 128              		.file 2 "c:\\program files (x86)\\cypress\\psoc creator\\4.2\\psoc creator\\import\\gnu\\arm\\5.4.
 129              		.file 3 "c:\\program files (x86)\\cypress\\psoc creator\\4.2\\psoc creator\\import\\gnu\\arm\\5.4.
 130              		.file 4 "Generated_Source\\PSoC5/LCD_1.h"
 131              		.file 5 "Generated_Source\\PSoC5/CyLib.h"
 132              		.file 6 "Generated_Source\\PSoC5/core_cm3.h"